(dp0
S'me'
p1
ccopy_reg
_reconstructor
p2
(clink
Client
p3
c__builtin__
object
p4
Ntp5
Rp6
(dp7
S'public_ip'
p8
V10.154.0.2
p9
sS'transits'
p10
(dp11
Vuswest
p12
(lp13
(g2
(clink
Endpoint
p14
g4
Ntp15
Rp16
(dp17
S'partner'
p18
g2
(g14
g4
Ntp19
Rp20
(dp21
g18
g16
sS'ip'
p22
V35.197.212.74
p23
sS'private_key'
p24
S'mHeWwQDGqRTeGE2VB47G/GgoIC2I5dJidsyAMaEhNUA='
p25
sS'port'
p26
I5001
sS'public_key'
p27
S'TQ3243rdRE08YHuX3LJjt6m0Q388UJO+VZede9hPU2Q='
p28
sbsg22
g9
sg24
S'YPrTUQtvWx4RACFUMfsoG/ro3zFzptoA5JgPZGnYsF4='
p29
sg26
I5001
sg27
S'c8SXNEkGQnriH3fVoW4xZFi7c+piPbJNGl/QdXFYEW0='
p30
sbg2
(clink
Transit
p31
g4
Ntp32
Rp33
(dp34
S'private_ip_b'
p35
S'10.6.10.12'
p36
sS'private_ip_a'
p37
S'10.5.10.12'
p38
sS'vpc_ip'
p39
V10.154.0.3
p40
sS'client_facing_endpoints'
p41
(lp42
(g20
g6
tp43
asS'free_port'
p44
I5002
sS'transit_facing_endpoint'
p45
g2
(g14
g4
Ntp46
Rp47
(dp48
g18
g2
(g14
g4
Ntp49
Rp50
(dp51
g18
g47
sg22
V10.138.0.4
p52
sg24
S'mDWlxVNDjINMMd5WYba65RQLdJa8ACIQjU+//GwXZng='
p53
sg26
I3001
sg27
S'qHbpqYPx36MEKkGZwIhTAFSvC3JBAUxOTAMw57Gqonc='
p54
sbsg22
g40
sg24
S'WA0St+Ht0PNGQYvH7lKqQGvf43WCMaNwtSF3LOhtrXk='
p55
sg26
I3001
sg27
S'7ZY5SnaIXcIZG6LGTcarcOY66HD7nZm4BRsyhbCtvg0='
p56
sbsS'internal_tunnel'
p57
I00
sS'pair'
p58
g2
(g31
g4
Ntp59
Rp60
(dp61
g35
S'10.2.10.12'
p62
sg37
S'10.1.10.12'
p63
sg39
g52
sg41
(lp64
(g2
(g14
g4
Ntp65
Rp66
(dp67
g18
g2
(g14
g4
Ntp68
Rp69
(dp70
g18
g66
sg22
V10.138.0.3
p71
sg24
S'eHon7ygUASoGiZ4v91CIhSUvPmMF1SruMljz73WWX3Y='
p72
sg26
I5001
sg27
S'K/Wlmv89FOpUuYB1Vs5EjO+nw8PINhQoJxnJh3ZqYyM='
p73
sbsg22
V35.203.181.158
p74
sg24
S'MEtVvLiHA+CQyUsCFgpAtF0Wlj+IXwWepqszwrtim2w='
p75
sg26
I5001
sg27
S'X615o84z2C7Q67hFVwRSoYo0AgQY5Y/LaFKuEo95p1c='
p76
sbg2
(g3
g4
Ntp77
Rp78
(dp79
g8
g71
sg10
(dp80
Veurope
p81
(lp82
(g69
g60
tp83
a(g2
(g14
g4
Ntp84
Rp85
(dp86
g18
g2
(g14
g4
Ntp87
Rp88
(dp89
g18
g85
sg22
V35.203.132.70
p90
sg24
S'aJn7MooFLWqCYJCuQcNsUBa0QH++UWq6zK3upmZhQlA='
p91
sg26
I5001
sg27
S'LErrxm4/Yh6IUz7hMxzDd8nRIi0ULa+Jf3kN+3193nc='
p92
sbsg22
g71
sg24
S'WHuYPIfMmWsvnG3BDRYAQPIU9q4oJYVjcITOqat/In8='
p93
sg26
I5002
sg27
S'3Q0FIANVG8pHys5y1fXsXmyIKCPyKXVdk7vAC4IprzI='
p94
sbg2
(g31
g4
Ntp95
Rp96
(dp97
g35
S'10.4.10.12'
p98
sg37
S'10.3.10.12'
p99
sg39
V10.138.0.5
p100
sg41
(lp101
(g88
g78
tp102
asg44
I5002
sg45
g2
(g14
g4
Ntp103
Rp104
(dp105
g18
g2
(g14
g4
Ntp106
Rp107
(dp108
g18
g104
sg22
V10.154.0.4
p109
sg24
S'oHzRhMxA62+2y00WerDLZtc1QsqUn7qUcVWqjL8bvl4='
p110
sg26
I3001
sg27
S'l9btji92DbdYhvEhjeMdyEbnJV13i8eIO/xsAF/pgDE='
p111
sbsg22
g100
sg24
S'8FBODHktN/FAnN4pbh4KDjSsQ9NWb84H88NifrXM2kE='
p112
sg26
I3001
sg27
S'XtiRdg/EH2+nm3d/qA/dCJzCmx21cxJ8n5dbwldh50k='
p113
sbsg57
I00
sg58
g2
(g31
g4
Ntp114
Rp115
(dp116
g35
S'10.8.10.12'
p117
sg37
S'10.7.10.12'
p118
sg39
g109
sg41
(lp119
(g2
(g14
g4
Ntp120
Rp121
(dp122
g18
g2
(g14
g4
Ntp123
Rp124
(dp125
g18
g121
sg22
g9
sg24
S'AL/ERPiAzLoqvwRYvobj/+1v5B8n5Iw1kVZ6+piOtmY='
p126
sg26
I5002
sg27
S'TBn2caPSMQzMowLuJhI2A+G7ehOYz4uKTX/uqsUySQo='
p127
sbsg22
V35.197.232.245
p128
sg24
S'eH3S6To4EQ7uFhz4dsiNmH9o9/ZWD7pGXhQTvAuwZ24='
p129
sg26
I5001
sg27
S'cnzutsw3rlN/yijHJLMLj5ehieiaLpbsGcQJjSkWIzw='
p130
sbg6
tp131
asg44
I5002
sg45
g107
sg57
I00
sg58
g96
sS'client_facing_ip'
p132
g128
sbsg132
g90
sbtp133
assS'private_ip'
p134
V192.168.1.37
p135
sg44
I5003
sbtp136
asg44
I5002
sg45
g50
sg57
I00
sg58
g33
sg132
g74
sbsg132
g23
sbtp137
a(g124
g115
tp138
assg134
V192.168.2.42
p139
sg44
I5003
sbsS'nodes'
p140
(lp141
g2
(clink
Node
p142
g4
Ntp143
Rp144
(dp145
S'region'
p146
Vus-west1
p147
sS'clients'
p148
(lp149
g78
asg10
(lp150
g60
ag96
asS'name'
p151
g12
sS'zone'
p152
Vus-west1-b
p153
sbag2
(g142
g4
Ntp154
Rp155
(dp156
g146
Veurope-west2
p157
sg148
(lp158
g6
asg10
(lp159
g33
ag115
asg151
g81
sg152
Veurope-west2-b
p160
sbas.