(dp0
S'me'
p1
ccopy_reg
_reconstructor
p2
(clink
Client
p3
c__builtin__
object
p4
Ntp5
Rp6
(dp7
S'public_ip'
p8
V35.203.69.176
p9
sS'transits'
p10
(dp11
Vcentral
p12
(lp13
(g2
(clink
Endpoint
p14
g4
Ntp15
Rp16
(dp17
S'partner'
p18
g2
(g14
g4
Ntp19
Rp20
(dp21
g18
g16
sS'ip'
p22
V35.237.223.122
p23
sS'private_key'
p24
S'kG7OdYCO7lDni4yY3og4BP0dAk5bccZoCbRqupcKklc='
p25
sS'port'
p26
I5001
sS'public_key'
p27
S'71yB+jIuPdv5pTNbMS9nZuHt60VQRFcjlBI/ZI4gZQY='
p28
sbsg22
g9
sg24
S'EPkvfG8JkTUwAeU1GkXHK4/9EzMRIhaimDZznj8OsGU='
p29
sg26
I5001
sg27
S'mS7pwh2H3CVBPvLSgbL++KH2OVW2V8s5MqX46aU6lHA='
p30
sbg2
(clink
Transit
p31
g4
Ntp32
Rp33
(dp34
S'private_ip_b'
p35
S'10.8.10.12'
p36
sS'private_ip_a'
p37
S'10.7.10.12'
p38
sS'vpc_ip'
p39
V10.142.0.2
p40
sS'client_facing_endpoints'
p41
(lp42
(g20
g6
tp43
asS'free_port'
p44
I5002
sS'transit_facing_endpoint'
p45
g2
(g14
g4
Ntp46
Rp47
(dp48
g18
g2
(g14
g4
Ntp49
Rp50
(dp51
g18
g47
sg22
V10.128.0.2
p52
sg24
S'qDNFqLfKeLnd/4FsrZgvd+tEkHUI4k9NykLn30CV0n4='
p53
sg26
I3001
sg27
S'BGrE0xCeIX5d04HTDLyM4nHUkgGNyFSH9Z64xCf41F4='
p54
sbsg22
g40
sg24
S'YCcXQJfhXxrc+OrUn6v2xsnY8cz0plqNGljZy+QNhmI='
p55
sg26
I3001
sg27
S'aPOWvbjg2Mc53x7OK8hcLw/pNT9gN35xhBBpW97TAQU='
p56
sbsS'internal_tunnel'
p57
I00
sS'pair'
p58
g2
(g31
g4
Ntp59
Rp60
(dp61
g35
S'10.2.10.12'
p62
sg37
S'10.1.10.12'
p63
sg39
g52
sg41
(lp64
(g2
(g14
g4
Ntp65
Rp66
(dp67
g18
g2
(g14
g4
Ntp68
Rp69
(dp70
g18
g66
sg22
V35.233.163.28
p71
sg24
S'cFjfPFOAO+Tt1WRC8fpjmj0eIJAa3srjrVqWqau3klA='
p72
sg26
I5001
sg27
S'/Ilv41L5L+J29l3hGxZDTf0+E9tP3nc8aNiPnOsGwXE='
p73
sbsg22
V35.226.255.29
p74
sg24
S'6KQHaE+W0PsvpdOToZh70S8s6t5VRekD3dyu4puIH0w='
p75
sg26
I5001
sg27
S'jKoB8Xs+arLFz5laLLGqeUjIDdnim0Mjp4T2OQN+pU8='
p76
sbg2
(g3
g4
Ntp77
Rp78
(dp79
g8
g71
sg10
(dp80
Veast
p81
(lp82
(g69
g60
tp83
a(g2
(g14
g4
Ntp84
Rp85
(dp86
g18
g2
(g14
g4
Ntp87
Rp88
(dp89
g18
g85
sg22
V35.225.53.55
p90
sg24
S'UHFEQn3C+sylWA6EZTYsFHhZ0gE0SESPVV8vpXSLo1Q='
p91
sg26
I5001
sg27
S'imnkCEiiGCkKGcHDKvNOwS/r61CHljLIjmVn2YV8yUE='
p92
sbsg22
g71
sg24
S'iBrStj+EvX+YifFHvftgzRcqCjG50i5cSaLnDSXYuXs='
p93
sg26
I5002
sg27
S'cDtccll+qRsoYGhsH2rx++IQNSepZqV74A7ZObWRMmY='
p94
sbg2
(g31
g4
Ntp95
Rp96
(dp97
g35
S'10.4.10.12'
p98
sg37
S'10.3.10.12'
p99
sg39
V10.128.0.3
p100
sg41
(lp101
(g88
g78
tp102
asg44
I5002
sg45
g2
(g14
g4
Ntp103
Rp104
(dp105
g18
g2
(g14
g4
Ntp106
Rp107
(dp108
g18
g104
sg22
V10.142.0.3
p109
sg24
S'QBRttobfPFYA3B9irtW4C3zs+8qLFLNXAMQBmkNAZn8='
p110
sg26
I3001
sg27
S'pPs5EEtwQRfqF4l2PQV9CfFr1pU0RoFZMrqF1SmECSU='
p111
sbsg22
g100
sg24
S'GDUWA9yBUF2NE/kOVwEW6namCqnRQO+lUZMb8fbmXFs='
p112
sg26
I3001
sg27
S'dQ6SGK0LXV5KDy04yuq1AOFcYV6UD+d8sL8wKDSR9Ss='
p113
sbsg57
I00
sg58
g2
(g31
g4
Ntp114
Rp115
(dp116
g35
S'10.10.10.12'
p117
sg37
S'10.9.10.12'
p118
sg39
g109
sg41
(lp119
(g2
(g14
g4
Ntp120
Rp121
(dp122
g18
g2
(g14
g4
Ntp123
Rp124
(dp125
g18
g121
sg22
g9
sg24
S'CJUIMO2dBFphIh9EO7fK9MIOYC60nA1mFI4JAa2VkWk='
p126
sg26
I5002
sg27
S'fAGIA0Uku8VurjN5PIVWv3+hTkXk/dc6uEsbMQaXXxo='
p127
sbsg22
V35.185.86.16
p128
sg24
S'SA9k77ORMchEpN/nXVDcHfZoT9SuXX1muIlnbqnu2Hk='
p129
sg26
I5001
sg27
S'aoDgfnEYbisl0pdMA8XMQr+/zhl38V0bpTeHoFydXW0='
p130
sbg6
tp131
asg44
I5002
sg45
g107
sg57
I00
sg58
g96
sS'client_facing_ip'
p132
g128
sbsg132
g90
sbtp133
a(g2
(g14
g4
Ntp134
Rp135
(dp136
g18
g2
(g14
g4
Ntp137
Rp138
(dp139
g18
g135
sg22
V35.226.58.114
p140
sg24
S'2KzsDSQNimpF90y6auDRqs6t+U1GpPsqW6AcGN6NHW8='
p141
sg26
I5001
sg27
S'lQ574AULUbS/zHLEHjVd/j/rMm9166oBdUBOoAs9CF4='
p142
sbsg22
g71
sg24
S'uKmCWbfLR0b4KCxoeoV/GR7fb3m+Oj/4+dFYrTqUtG8='
p143
sg26
I5003
sg27
S'Q5dqXbVbLGV6JwswuvmBEWXT4HGrgIAw8ovB1ihvnnY='
p144
sbg2
(g31
g4
Ntp145
Rp146
(dp147
g35
S'10.6.10.12'
p148
sg37
S'10.5.10.12'
p149
sg39
V10.128.0.4
p150
sg41
(lp151
(g138
g78
tp152
asg44
I5002
sg45
g2
(g14
g4
Ntp153
Rp154
(dp155
g18
g2
(g14
g4
Ntp156
Rp157
(dp158
g18
g154
sg22
V10.142.0.4
p159
sg24
S'cF63eGIvQzHHkMvPC63stVx0pDfWC2EO6q36akFtZ1I='
p160
sg26
I3001
sg27
S'27cp7reESgUwciY7EjIqH1pBg4bUd+Ob3Jl7MH5f6hw='
p161
sbsg22
g150
sg24
S'mM3C8R6xSzMjE90S/4Ug7JLIGNvG/ySnLcXLpyDWhnY='
p162
sg26
I3001
sg27
S'IV1mNxVhBorEZA38txuV6mnoJhGXgJwknES7jJDPwyM='
p163
sbsg57
I00
sg58
g2
(g31
g4
Ntp164
Rp165
(dp166
g35
S'10.12.10.12'
p167
sg37
S'10.11.10.12'
p168
sg39
g159
sg41
(lp169
(g2
(g14
g4
Ntp170
Rp171
(dp172
g18
g2
(g14
g4
Ntp173
Rp174
(dp175
g18
g171
sg22
g9
sg24
S'IA1hhkzxca7fCAN2GZiaz+f+uQlQ1r/UQYKSEIBDonk='
p176
sg26
I5003
sg27
S'EkxgAhx6TKrG3QbNhl+ic12Nwngq4uU5ZSRboJrBbCU='
p177
sbsg22
V35.237.131.218
p178
sg24
S'UFTxhLrZLN3xsdXe7dRI0L3TC9Iue7wlen0xgeSnVlo='
p179
sg26
I5001
sg27
S'tNpVCUf/DLRWbiLj/icRHeZXNzJntN7j0qdorKCnfQ4='
p180
sbg6
tp181
asg44
I5002
sg45
g157
sg57
I00
sg58
g146
sg132
g178
sbsg132
g140
sbtp182
assS'private_ip'
p183
V192.168.1.37
p184
sg44
I5004
sbtp185
asg44
I5002
sg45
g50
sg57
I00
sg58
g33
sg132
g74
sbsg132
g23
sbtp186
a(g124
g115
tp187
a(g174
g165
tp188
assg183
V192.168.2.42
p189
sg44
I5004
sbsS'nodes'
p190
(lp191
g2
(clink
Node
p192
g4
Ntp193
Rp194
(dp195
S'region'
p196
Vus-central1
p197
sS'clients'
p198
(lp199
g78
asg10
(lp200
g60
ag96
ag146
asS'name'
p201
g12
sS'zone'
p202
Vus-central1-b
p203
sbag2
(g192
g4
Ntp204
Rp205
(dp206
g196
Vus-east1
p207
sg198
(lp208
g6
asg10
(lp209
g33
ag115
ag165
asg201
g81
sg202
Vus-east1-b
p210
sbas.