(dp0
S'me'
p1
ccopy_reg
_reconstructor
p2
(clink
Client
p3
c__builtin__
object
p4
Ntp5
Rp6
(dp7
S'public_ip'
p8
V124.66.99.99
p9
sS'transits'
p10
(dp11
Voregon
p12
(lp13
(g2
(clink
Endpoint
p14
g4
Ntp15
Rp16
(dp17
S'partner'
p18
g2
(g14
g4
Ntp19
Rp20
(dp21
g18
g16
sS'ip'
p22
V35.234.155.165
p23
sS'private_key'
p24
S'aGNpI7vPxgtDtI5M0YAsMjP864XeQtiVDDEowBQYqn8='
p25
sS'port'
p26
I5001
sS'public_key'
p27
S'oDXJeL/E5WlaRPPSVsnZ1pZ41Y7agoaHOaI7WemOFUc='
p28
sbsg22
g9
sg24
S'0FlWnHy7HKhCJo2WpvdYrJBomGCxfiZhtg+HqAaK128='
p29
sg26
I5001
sg27
S'ZslqSnW43h1DJS+XsxcFyGF9DdMZnzErt29b9vuJdlQ='
p30
sbg2
(clink
Transit
p31
g4
Ntp32
Rp33
(dp34
S'private_ip_b'
p35
S'10.6.10.12'
p36
sS'private_ip_a'
p37
S'10.5.10.12'
p38
sS'vpc_ip'
p39
V10.154.0.2
p40
sS'client_facing_endpoints'
p41
(lp42
(g20
g6
tp43
asS'free_port'
p44
I5002
sS'transit_facing_endpoint'
p45
g2
(g14
g4
Ntp46
Rp47
(dp48
g18
g2
(g14
g4
Ntp49
Rp50
(dp51
g18
g47
sg22
V10.138.0.2
p52
sg24
S'uDX4mWilxMi5JX4f9Ot17WMrWu5ijX+lMbvui+mixmY='
p53
sg26
I3001
sg27
S'AvfYuHQJWexZ1g70eF0P9OmdJ9tL+uv4X877/SiivBQ='
p54
sbsg22
g40
sg24
S'iMLPsCZ8VlEbqL2FwaHMNoFvyPBK4503Ci9iI17Swl0='
p55
sg26
I3001
sg27
S'/IyI5YO0nYHJ3ifosLaYx0myI4mn1j8SuOUkitUJUTM='
p56
sbsS'pair'
p57
g2
(g31
g4
Ntp58
Rp59
(dp60
g35
S'10.2.10.12'
p61
sg37
S'10.1.10.12'
p62
sg39
g52
sg41
(lp63
(g2
(g14
g4
Ntp64
Rp65
(dp66
g18
g2
(g14
g4
Ntp67
Rp68
(dp69
g18
g65
sg22
V33.21.99.99
p70
sg24
S'AJ9C+WbEHungmkHX41pweFbY8MrXfIf2Okq5beZqZFI='
p71
sg26
I5001
sg27
S'CLu/4jfZTCyC2KR9nhgh7FujbGBbPqScHYyEMZkh2lE='
p72
sbsg22
V35.199.167.232
p73
sg24
S'OD/jYAmmRLtCZMSWUBs+jmHkaSoQDLeKPPEkNgpFwHs='
p74
sg26
I5001
sg27
S'P3VBvvmFy129q3Pd03HiOMrIn04YUmOTgklpgIHqBCo='
p75
sbg2
(g3
g4
Ntp76
Rp77
(dp78
g8
g70
sg10
(dp79
Vlondon
p80
(lp81
(g68
g59
tp82
a(g2
(g14
g4
Ntp83
Rp84
(dp85
g18
g2
(g14
g4
Ntp86
Rp87
(dp88
g18
g84
sg22
V35.233.202.221
p89
sg24
S'qPPgjjAwQcO1FCfU3Beq0P0F4owqqwk0dXKPa5s9XUk='
p90
sg26
I5001
sg27
S'w11zB+GP12gIBLwCy+TbtoGoh+fshd5LPobqwyvHgxY='
p91
sbsg22
g70
sg24
S'MAGJhR9JW3LCk0CmjU2Uex7hlBVQDcL5y6U50VtpPlA='
p92
sg26
I5002
sg27
S'8/EwLitdrboINDyb5Sn8+qx7B1owGXHpa61GGZT9Q10='
p93
sbg2
(g31
g4
Ntp94
Rp95
(dp96
g35
S'10.4.10.12'
p97
sg37
S'10.3.10.12'
p98
sg39
V10.138.0.3
p99
sg41
(lp100
(g87
g77
tp101
asg44
I5002
sg45
g2
(g14
g4
Ntp102
Rp103
(dp104
g18
g2
(g14
g4
Ntp105
Rp106
(dp107
g18
g103
sg22
V10.154.0.3
p108
sg24
S'qPz/3cZWPOf3QssC+1avgKuqbWzLKfPYxlmoVpr5g0c='
p109
sg26
I3001
sg27
S'ngZTP+3r54VvmiId+DXQjTdlW1bg3LMYtyXqWg5Q9UQ='
p110
sbsg22
g99
sg24
S'iIcVFWPZqLCchZcQN+5amTeNEc0zyLFEDmzIzlzyhlo='
p111
sg26
I3001
sg27
S'xcg+RABy31evepcZUNOs5ozIiHUQv7AsVMAOAhTrWkQ='
p112
sbsg57
g2
(g31
g4
Ntp113
Rp114
(dp115
g35
S'10.8.10.12'
p116
sg37
S'10.7.10.12'
p117
sg39
g108
sg41
(lp118
(g2
(g14
g4
Ntp119
Rp120
(dp121
g18
g2
(g14
g4
Ntp122
Rp123
(dp124
g18
g120
sg22
g9
sg24
S'mFn130iPnqY1DUW/HiS5hUQ3z1lpj9CujIRlAwNF+GM='
p125
sg26
I5002
sg27
S'uzgZ8vNQzG969fiRv6OF/UiPgqkDYH6+WUnoNgOhjhg='
p126
sbsg22
V35.197.202.107
p127
sg24
S'sKxFooWi5jO0kM7zMwyQQ2WCWSgALCkrTfZ8+fy/QVM='
p128
sg26
I5001
sg27
S'XqUMJwfTNPcl68QA6PvwwCkH2HOyEfSmqHN09MRwKEQ='
p129
sbg6
tp130
asg44
I5002
sg45
g106
sg57
g95
sS'client_facing_ip'
p131
g127
sbsg131
g89
sbtp132
assS'private_ip'
p133
V192.168.1.37
p134
sg44
I5003
sbtp135
asg44
I5002
sg45
g50
sg57
g33
sg131
g73
sbsg131
g23
sbtp136
a(g123
g114
tp137
assg133
V192.168.2.42
p138
sg44
I5003
sbsS'nodes'
p139
(lp140
g2
(clink
Node
p141
g4
Ntp142
Rp143
(dp144
S'region'
p145
Vus-west1
p146
sS'clients'
p147
(lp148
g77
asg10
(lp149
g59
ag95
asS'name'
p150
g12
sS'zone'
p151
Vus-west1-b
p152
sbag2
(g141
g4
Ntp153
Rp154
(dp155
g145
Veurope-west2
p156
sg147
(lp157
g6
asg10
(lp158
g33
ag114
asg150
g80
sg151
Veurope-west2-b
p159
sbas.