(dp0
S'me'
p1
ccopy_reg
_reconstructor
p2
(clink
Client
p3
c__builtin__
object
p4
Ntp5
Rp6
(dp7
S'public_ip'
p8
V35.189.86.183
p9
sS'transits'
p10
(dp11
Voregon
p12
(lp13
(g2
(clink
Endpoint
p14
g4
Ntp15
Rp16
(dp17
S'partner'
p18
g2
(g14
g4
Ntp19
Rp20
(dp21
g18
g16
sS'ip'
p22
V35.197.232.46
p23
sS'private_key'
p24
S'4AV438FxB3b6Kq6im6WH+sFaCfC2Bb0fxopXRQn25kk='
p25
sS'port'
p26
I5001
sS'public_key'
p27
S'geSZsJbHDC1Z9XKdtxW22FNSiavyp/hkKpWwbxkD5AY='
p28
sbsg22
g9
sg24
S'iIcm1ChxyP9XVDvH67HGFGdKh1XqppklzcnGJrtT7FM='
p29
sg26
I5001
sg27
S'YQefuTa2mFLVuylkJEU74A4XlmBIZKUE9WQdjJz5EBE='
p30
sbg2
(clink
Transit
p31
g4
Ntp32
Rp33
(dp34
S'private_ip_b'
p35
S'10.4.10.12'
p36
sS'private_ip_a'
p37
S'10.3.10.12'
p38
sS'vpc_ip'
p39
V10.154.0.3
p40
sS'client_facing_endpoints'
p41
(lp42
(g20
g6
tp43
asS'free_port'
p44
I5002
sS'transit_facing_endpoint'
p45
g2
(g14
g4
Ntp46
Rp47
(dp48
g18
g2
(g14
g4
Ntp49
Rp50
(dp51
g18
g47
sg22
V10.138.0.4
p52
sg24
S'GJOf051Jh5F6sjcEfJ09te3doclyy1kpgaTDRyRlO0Y='
p53
sg26
I3001
sg27
S'Nk5q1jqaXpPJ1tHsXhm5n0+QdUGCtVQfHTICEB+87xk='
p54
sbsg22
g40
sg24
S'2BDDQsrBaaRBFYSbP+fTjsFJ9JThkKuGWwDUb3Szu3g='
p55
sg26
I3001
sg27
S'7QQpTFl9sb9M2OhDS7b92Kch0Cau4XRgxyiByWN4FXQ='
p56
sbsS'internal_tunnel'
p57
I00
sS'pair'
p58
g2
(g31
g4
Ntp59
Rp60
(dp61
g35
S'10.2.10.12'
p62
sg37
S'10.1.10.12'
p63
sg39
g52
sg41
(lp64
(g2
(g14
g4
Ntp65
Rp66
(dp67
g18
g2
(g14
g4
Ntp68
Rp69
(dp70
g18
g66
sg22
V35.233.253.230
p71
sg24
S'0IJq9ovqPrKpozM1wf0C4jat8O2UXwcr6khx1aLZGnI='
p72
sg26
I5001
sg27
S'w+BKHCdl6mjf4jV4SNByLjxJ3bOuGH1j4bu2AtojvAM='
p73
sbsg22
V35.230.23.208
p74
sg24
S'GJ/IMrtIn1aAfrgkWUKtf+uYYj+gFOGEPhM1MK+eEko='
p75
sg26
I5001
sg27
S'dPcsLZa2sTPz/XSEZQ8isCcAaoRLgOIlyqAsNcmQrlo='
p76
sbg2
(g3
g4
Ntp77
Rp78
(dp79
g8
g71
sg10
(dp80
Vlondon
p81
(lp82
(g69
g60
tp83
assS'private_ip'
p84
V192.168.1.37
p85
sg44
I5002
sbtp86
asg44
I5002
sg45
g50
sg57
I00
sg58
g33
sS'client_facing_ip'
p87
g74
sbsg87
g23
sbtp88
assg84
V192.168.2.42
p89
sg44
I5002
sbsS'nodes'
p90
(lp91
g2
(clink
Node
p92
g4
Ntp93
Rp94
(dp95
S'region'
p96
Vus-west1
p97
sS'clients'
p98
(lp99
g78
asg10
(lp100
g60
asS'name'
p101
g12
sS'zone'
p102
Vus-west1-b
p103
sbag2
(g92
g4
Ntp104
Rp105
(dp106
g96
Veurope-west2
p107
sg98
(lp108
g6
asg10
(lp109
g33
asg101
g81
sg102
Veurope-west2-b
p110
sbas.