(dp0
S'me'
p1
ccopy_reg
_reconstructor
p2
(clink
Client
p3
c__builtin__
object
p4
Ntp5
Rp6
(dp7
S'public_ip'
p8
V35.178.3.207
p9
sS'transits'
p10
(dp11
Voregon
p12
(lp13
(g2
(clink
Endpoint
p14
g4
Ntp15
Rp16
(dp17
S'partner'
p18
g2
(g14
g4
Ntp19
Rp20
(dp21
g18
g16
sS'ip'
p22
V35.234.128.213
p23
sS'private_key'
p24
S'qCRgrlXJMfo9RV1thmucFNxO3oDnnc05KF0T9mnF6WU='
p25
sS'port'
p26
I5001
sS'public_key'
p27
S'si6d+NnqjNexgoUqZKw8qHkCpB5ieamGfYy9LEQyKzQ='
p28
sbsg22
g9
sg24
S'kHKaQ5o84kBK3k2NYGWzMmqKEyrKIklUF38eHxi5IFs='
p29
sg26
I5001
sg27
S'vGA4JskqxiSHFy0mTxqZ+pv4bZxr8xBDvWQQPJKlawc='
p30
sbg2
(clink
Transit
p31
g4
Ntp32
Rp33
(dp34
S'private_ip_b'
p35
S'10.10.10.12'
p36
sS'private_ip_a'
p37
S'10.9.10.12'
p38
sS'vpc_ip'
p39
V10.154.0.2
p40
sS'client_facing_endpoints'
p41
(lp42
(g20
g6
tp43
asS'free_port'
p44
I5002
sS'transit_facing_endpoint'
p45
g2
(g14
g4
Ntp46
Rp47
(dp48
g18
g2
(g14
g4
Ntp49
Rp50
(dp51
g18
g47
sg22
V10.138.0.2
p52
sg24
S'uOMeNe1eFOhhs6mOx/3kdh5BsCeTqd3abQrLpX1Tqms='
p53
sg26
I3001
sg27
S'rW9my84CtW1NA9tcByIUuSRozk4EFJnxON1f/P3gI2A='
p54
sbsg22
g40
sg24
S'iEzCm7M7izXQ9D/U7Nxgjtn2hNvV1fJ34vDOfj5U70s='
p55
sg26
I3001
sg27
S'4UWs5FHD3xbSS/qJf8cQkuGm17iN2+klBkACUbZq2WM='
p56
sbsS'pair'
p57
g2
(g31
g4
Ntp58
Rp59
(dp60
g35
S'10.2.10.12'
p61
sg37
S'10.1.10.12'
p62
sg39
g52
sg41
(lp63
(g2
(g14
g4
Ntp64
Rp65
(dp66
g18
g2
(g14
g4
Ntp67
Rp68
(dp69
g18
g65
sg22
V34.219.38.20
p70
sg24
S'wNUWW7r3tO7gRT2eVnB+/3cHanljcLTfz82PGta2KkI='
p71
sg26
I5001
sg27
S'Mxue2wGJhDuJKZJQNTq9TykpIxdGPxrS/j94i4iZIBY='
p72
sbsg22
V104.196.242.66
p73
sg24
S'2INZYm2SYA3+z0TUslmDBcFs8D/8mpb/p+Msk8ldgFw='
p74
sg26
I5001
sg27
S'nPW/+zgC4ltmwFXtovJEN27bCz/NmmoVTH9Ydmj0UwU='
p75
sbg2
(g3
g4
Ntp76
Rp77
(dp78
g8
g70
sg10
(dp79
Vlondon
p80
(lp81
(g68
g59
tp82
a(g2
(g14
g4
Ntp83
Rp84
(dp85
g18
g2
(g14
g4
Ntp86
Rp87
(dp88
g18
g84
sg22
V35.230.58.120
p89
sg24
S'SB0FqEprOyWsb/Jf0nUvU18TNHRMfBLokx8i/FAF3GE='
p90
sg26
I5001
sg27
S'138aS1jWKL3ynKyqBAUvk06jx/87qcMRUf6ZVAGblUw='
p91
sbsg22
g70
sg24
S'uGh8zP12mnSh9VRmdQ3Um66C/AAbR7baymKTa0aj90w='
p92
sg26
I5002
sg27
S'tg+U42WNxBxYMbEcHLUo9HkC1STesfmfS57pL09fZgU='
p93
sbg2
(g31
g4
Ntp94
Rp95
(dp96
g35
S'10.4.10.12'
p97
sg37
S'10.3.10.12'
p98
sg39
V10.138.0.3
p99
sg41
(lp100
(g87
g77
tp101
asg44
I5002
sg45
g2
(g14
g4
Ntp102
Rp103
(dp104
g18
g2
(g14
g4
Ntp105
Rp106
(dp107
g18
g103
sg22
V10.154.0.3
p108
sg24
S'gNE/LTt8Q1gya6D7UqD91YeE44AA9jdQqwZj7cwPlEU='
p109
sg26
I3001
sg27
S'iZg/yWsyDtClTMVoVe/FIx/XPjhrhjnY2Yk2fhOdBhY='
p110
sbsg22
g99
sg24
S'cBB6tIkJtYW+Ev7GGGQ/DCuTMglZU3Qi/Qwt+LzEcEk='
p111
sg26
I3001
sg27
S'POE1VM2NmT92yk15xWl8re6yo+Hjq8MbJ4VW1JXvjRA='
p112
sbsg57
g2
(g31
g4
Ntp113
Rp114
(dp115
g35
S'10.12.10.12'
p116
sg37
S'10.11.10.12'
p117
sg39
g108
sg41
(lp118
(g2
(g14
g4
Ntp119
Rp120
(dp121
g18
g2
(g14
g4
Ntp122
Rp123
(dp124
g18
g120
sg22
g9
sg24
S'EGG4G6qqpki5n+rOTNhVrju9Laxsxi1kGwDh3sjtQVc='
p125
sg26
I5002
sg27
S'TiGFHhGrUHg+Gh85lrW5/iOwNA9VbZeIVmuAEEzD6SA='
p126
sbsg22
V35.234.155.165
p127
sg24
S'8OZgU0RLvOL7JcHZJ4hwnIok1qYy49oQYnF5ib2HbFE='
p128
sg26
I5001
sg27
S'LlkXwLCvG+1anPF8cvhjMULNiOZH0ba384XKMsmodxk='
p129
sbg6
tp130
asg44
I5002
sg45
g106
sg57
g95
sS'client_facing_ip'
p131
g127
sbsg131
g89
sbtp132
a(g2
(g14
g4
Ntp133
Rp134
(dp135
g18
g2
(g14
g4
Ntp136
Rp137
(dp138
g18
g134
sg22
V35.233.202.221
p139
sg24
S'QOV2soisUfTQ1zmp4eKkjOM7AlDKjhCod22lbwnHUHI='
p140
sg26
I5001
sg27
S'4v7PK/ZYg2qNEuCztNhT1/uKuFOaJwQEJ17czHQ/sDY='
p141
sbsg22
g70
sg24
S'EME4SEevcW6R2bdOSr1fxn/PfXMs5FUckdTgLfkeqEc='
p142
sg26
I5003
sg27
S'1TiLhV0TOaTCA5TqSvCiTxlLX1V5pJnexu4bt2sSj2A='
p143
sbg2
(g31
g4
Ntp144
Rp145
(dp146
g35
S'10.6.10.12'
p147
sg37
S'10.5.10.12'
p148
sg39
V10.138.0.4
p149
sg41
(lp150
(g137
g77
tp151
asg44
I5002
sg45
g2
(g14
g4
Ntp152
Rp153
(dp154
g18
g2
(g14
g4
Ntp155
Rp156
(dp157
g18
g153
sg22
V10.154.0.4
p158
sg24
S'SDIchUlcEgisFyQDWfvEIFnvQzW6Zz+GJzjfonyZh20='
p159
sg26
I3001
sg27
S'e+OBbEJR5mbDsMOKn21ZBG9ptLzZ+BHf+xwRTsLT0yg='
p160
sbsg22
g149
sg24
S'sOcuBC48jhBF6UXRBa2EUYtIwWjc+FBb/ym8/+RHEHk='
p161
sg26
I3001
sg27
S'Y1PAkmldmsJ0AkeEveD78Gj9d1LZCHqfkK4oUqfAnFQ='
p162
sbsg57
g2
(g31
g4
Ntp163
Rp164
(dp165
g35
S'10.14.10.12'
p166
sg37
S'10.13.10.12'
p167
sg39
g158
sg41
(lp168
(g2
(g14
g4
Ntp169
Rp170
(dp171
g18
g2
(g14
g4
Ntp172
Rp173
(dp174
g18
g170
sg22
g9
sg24
S'ILmVZjI6dcGqqMMiLYKGzXUaHF7WbO8VApYr6lRUmVk='
p175
sg26
I5003
sg27
S'NLWVGjbrJW+lmbo6LILLTWO0BQh/vgQ91cn36vAlHG0='
p176
sbsg22
V35.234.130.236
p177
sg24
S'oHzLG6WtDR6GBuoGlJO9Hesm9u6fxhfEgN6GhQF6UXM='
p178
sg26
I5001
sg27
S'yhJbSjL22Eo1AF2NYTuo/ZGA6tBRh/7+h4HQDpSo0Fg='
p179
sbg6
tp180
asg44
I5002
sg45
g156
sg57
g145
sg131
g177
sbsg131
g139
sbtp181
a(g2
(g14
g4
Ntp182
Rp183
(dp184
g18
g2
(g14
g4
Ntp185
Rp186
(dp187
g18
g183
sg22
V35.199.167.232
p188
sg24
S'2ErvUeY9weWHVU0aK5eYJR/Alnbu8WUu76CvUoNOMFI='
p189
sg26
I5001
sg27
S'6aBRddVeoEf7sp4Mw4GJqPB5wWgxH08vIUEfGEaJ4S8='
p190
sbsg22
g70
sg24
S'GOvXNOQPmXcSSpWCtlnYIFiBvoL0BLEJJAxcvGlVmGk='
p191
sg26
I5004
sg27
S'tE8MqGtNx8nigUgnggFhUBRzcxI47+aCdbScP3rAw0I='
p192
sbg2
(g31
g4
Ntp193
Rp194
(dp195
g35
S'10.8.10.12'
p196
sg37
S'10.7.10.12'
p197
sg39
V10.138.0.5
p198
sg41
(lp199
(g186
g77
tp200
asg44
I5002
sg45
g2
(g14
g4
Ntp201
Rp202
(dp203
g18
g2
(g14
g4
Ntp204
Rp205
(dp206
g18
g202
sg22
V10.154.0.5
p207
sg24
S'+PidkngrX2d+jmdzR0xUEf3qzAyeF4shlWEfsjE3b24='
p208
sg26
I3001
sg27
S'e5Ig2DA59H7ckk7YgArEuuDNkGGOB+J2XyI9CmMVYmA='
p209
sbsg22
g198
sg24
S'aKIxNS31JYuQ2fOuvLpsLBp2lSyFS5eBgt8v7crn4WA='
p210
sg26
I3001
sg27
S'w5u9D13s0MjWZOJJqXMccCt2OklUlqtMAV9hQdDQ4D0='
p211
sbsg57
g2
(g31
g4
Ntp212
Rp213
(dp214
g35
S'10.16.10.12'
p215
sg37
S'10.15.10.12'
p216
sg39
g207
sg41
(lp217
(g2
(g14
g4
Ntp218
Rp219
(dp220
g18
g2
(g14
g4
Ntp221
Rp222
(dp223
g18
g219
sg22
g9
sg24
S'IHZ0MSkZxhgEkJMOR1khjket8oDI90RcNmbRdAPZuXQ='
p224
sg26
I5004
sg27
S'g5uozKIs39B3ujERshkBF7P+SRSNTB2gBLH2n/IeD1A='
p225
sbsg22
V35.197.202.107
p226
sg24
S'IGgCJTRKhNxSVFzu4eHh2HQ/1gS7q4xbVHO4P3muJGc='
p227
sg26
I5001
sg27
S'MQe7D9X0lAmuauKOQfbzBkOJ6l/8VyMrXXSyz/yzbAE='
p228
sbg6
tp229
asg44
I5002
sg45
g205
sg57
g194
sg131
g226
sbsg131
g188
sbtp230
assS'private_ip'
p231
V192.168.1.37
p232
sg44
I5005
sbtp233
asg44
I5002
sg45
g50
sg57
g33
sg131
g73
sbsg131
g23
sbtp234
a(g123
g114
tp235
a(g173
g164
tp236
a(g222
g213
tp237
assg231
V192.168.2.42
p238
sg44
I5005
sbsS'nodes'
p239
(lp240
g2
(clink
Node
p241
g4
Ntp242
Rp243
(dp244
S'region'
p245
Vus-west1
p246
sS'clients'
p247
(lp248
g77
asg10
(lp249
g59
ag95
ag145
ag194
asS'name'
p250
g12
sS'zone'
p251
Vus-west1-b
p252
sbag2
(g241
g4
Ntp253
Rp254
(dp255
g245
Veurope-west2
p256
sg247
(lp257
g6
asg10
(lp258
g33
ag114
ag164
ag213
asg250
g80
sg251
Veurope-west2-b
p259
sbas.