(dp0
S'me'
p1
ccopy_reg
_reconstructor
p2
(clink
Client
p3
c__builtin__
object
p4
Ntp5
Rp6
(dp7
S'public_ip'
p8
V10.154.0.2
p9
sS'transits'
p10
(dp11
Vasia
p12
(lp13
(g2
(clink
Endpoint
p14
g4
Ntp15
Rp16
(dp17
S'partner'
p18
g2
(g14
g4
Ntp19
Rp20
(dp21
g18
g16
sS'ip'
p22
V35.197.232.245
p23
sS'private_key'
p24
S'uKkpM/KCUfcMr+tUyf4NAJMyCqwjwsni+MTpGMgl9FU='
p25
sS'port'
p26
I5001
sS'public_key'
p27
S'0H0FOW9aD62BkXzIbmzMDowAtt9nQAI75b3E7BCrWSw='
p28
sbsg22
g9
sg24
S'MKRAEa+FEnMHgGcUGuAxb2e4th/gVOXCXmFr8NowCFY='
p29
sg26
I5001
sg27
S'IInGjwdd5g6AX8p0i9Q7YeWC6kFVloAqWFSxKY3uYlc='
p30
sbg2
(clink
Transit
p31
g4
Ntp32
Rp33
(dp34
S'private_ip_b'
p35
S'10.14.10.12'
p36
sS'private_ip_a'
p37
S'10.13.10.12'
p38
sS'vpc_ip'
p39
V10.154.0.3
p40
sS'client_facing_endpoints'
p41
(lp42
(g20
g6
tp43
asS'free_port'
p44
I5002
sS'transit_facing_endpoint'
p45
g2
(g14
g4
Ntp46
Rp47
(dp48
g18
g2
(g14
g4
Ntp49
Rp50
(dp51
g18
g47
sg22
V10.140.0.3
p52
sg24
S'eC0DpXyPPpkoxBq38lGBlC7zVSnFHwO/+2n9sPa/aVM='
p53
sg26
I3001
sg27
S'JKceTJy3bZohyHXpZT8D+ITjvUmSpDUJdEpjGP6JtE8='
p54
sbsg22
g40
sg24
S'0KORgbU87qcuwHPpOFapr8hRQNmpoly7ipgbHxetklI='
p55
sg26
I3001
sg27
S'gHt4jUwdXOBVr2QLIzgDs5ndRY0W+OkD/nV2bM4U0xk='
p56
sbsS'internal_tunnel'
p57
I00
sS'pair'
p58
g2
(g31
g4
Ntp59
Rp60
(dp61
g35
S'10.2.10.12'
p62
sg37
S'10.1.10.12'
p63
sg39
g52
sg41
(lp64
(g2
(g14
g4
Ntp65
Rp66
(dp67
g18
g2
(g14
g4
Ntp68
Rp69
(dp70
g18
g66
sg22
V10.140.0.2
p71
sg24
S'MCOiEu5F0+0N+vUBs4SyRuVozZnyMf870xRJgRxo5HY='
p72
sg26
I5001
sg27
S'bn2Yukdqzd52Jt4/5WtwAZgYlyVeF9qSlJYXLoZZCCE='
p73
sbsg22
V35.229.231.164
p74
sg24
S'+HuodDXD4jrMbzkO8rX5CjIPmNqJdmRt7qFZvocZG2I='
p75
sg26
I5001
sg27
S'xtyPBibiDHPY/xjoNCrd5vIkRME1rHAwNspb4lZFPQw='
p76
sbg2
(g3
g4
Ntp77
Rp78
(dp79
g8
g71
sg10
(dp80
Veurope
p81
(lp82
(g69
g60
tp83
a(g2
(g14
g4
Ntp84
Rp85
(dp86
g18
g2
(g14
g4
Ntp87
Rp88
(dp89
g18
g85
sg22
V35.194.251.214
p90
sg24
S'WO9tiJvUAeVzHhEE+FkcmR0Y2o9S0noYIHaS68SvzFI='
p91
sg26
I5001
sg27
S'MlImL4Zvt639Rp3VxatI1zbTluXcu7xTdhA19pOfNBI='
p92
sbsg22
g71
sg24
S'0LTWxPAQwe7VcSBpY90aQXvO1b0yPrNAZOd057NodFs='
p93
sg26
I5002
sg27
S'ATl8H0PTYmfY5CHLXmH2IeIB3iaJSFZ+WQ5xkeNA3wA='
p94
sbg2
(g31
g4
Ntp95
Rp96
(dp97
g35
S'10.4.10.12'
p98
sg37
S'10.3.10.12'
p99
sg39
V10.140.0.4
p100
sg41
(lp101
(g88
g78
tp102
asg44
I5002
sg45
g2
(g14
g4
Ntp103
Rp104
(dp105
g18
g2
(g14
g4
Ntp106
Rp107
(dp108
g18
g104
sg22
V10.154.0.4
p109
sg24
S'KEAxnlFZwLNl+IwkDeTnak9kmLTGdbnS/XbUVYz9Nms='
p110
sg26
I3001
sg27
S'qKmTMHpquzjyKG6D+WjcvQDECt9RRe8Hef2/dtcwYRY='
p111
sbsg22
g100
sg24
S'CMJFTk+ElB2nBcoqoYHyxCmniwo5eRQR8xNKiGZrpGU='
p112
sg26
I3001
sg27
S'oIQaJdNn7W99LU21EF1N7P5pNrJH8nkl8LIHrD8hDnM='
p113
sbsg57
I00
sg58
g2
(g31
g4
Ntp114
Rp115
(dp116
g35
S'10.16.10.12'
p117
sg37
S'10.15.10.12'
p118
sg39
g109
sg41
(lp119
(g2
(g14
g4
Ntp120
Rp121
(dp122
g18
g2
(g14
g4
Ntp123
Rp124
(dp125
g18
g121
sg22
g9
sg24
S'6Bh0gstajnhDr88i21vudNsaz1ErS2RiYlr4XPdmSnc='
p126
sg26
I5002
sg27
S'jzUcI0gjgVej8NpWC7J7Gkmi4HJ+r/+Klsmnxtrj3zU='
p127
sbsg22
V35.197.193.75
p128
sg24
S'aC1D/Fo45hgl/s9f3Ym1V599TP17B1kveGjObdZwcV8='
p129
sg26
I5001
sg27
S'gPcGnQr50Vat3ZvHj2w084CDMqxQRawq1NUbxw0F1Ak='
p130
sbg6
tp131
asg44
I5002
sg45
g107
sg57
I00
sg58
g96
sS'client_facing_ip'
p132
g128
sbsg132
g90
sbtp133
a(g2
(g14
g4
Ntp134
Rp135
(dp136
g18
g2
(g14
g4
Ntp137
Rp138
(dp139
g18
g135
sg22
V35.201.201.148
p140
sg24
S'OFX3kpZPMsvxCbxpX7PsnP3FK/2tTjv8tUSAeYLRSVI='
p141
sg26
I5001
sg27
S'DOiLlNNdpqjTSNWocDUDJDI4YIt835gzynvwpTe8W3A='
p142
sbsg22
g71
sg24
S'sH09IVu2oyVRBy1rTzwWSjT9LJMuLZy/TuzchnjN60k='
p143
sg26
I5003
sg27
S'WLt3LzNKYiehpg5gIH8YyBEzuLPtKd0AfPAxGJd1wRY='
p144
sbg2
(g31
g4
Ntp145
Rp146
(dp147
g35
S'10.6.10.12'
p148
sg37
S'10.5.10.12'
p149
sg39
V10.140.0.5
p150
sg41
(lp151
(g138
g78
tp152
asg44
I5002
sg45
g2
(g14
g4
Ntp153
Rp154
(dp155
g18
g2
(g14
g4
Ntp156
Rp157
(dp158
g18
g154
sg22
V10.154.0.5
p159
sg24
S'MJbG+nDv8f4Bx9Fbvo16pROt2RWJxuNLjH8T4BsRUmY='
p160
sg26
I3001
sg27
S'Y980dQJ7b5Is/kihaJKvHEIu8IBFu4LOBGwK2Jb21Qw='
p161
sbsg22
g150
sg24
S'UBFb5L+Fbjl9cswokQ3k+nsll3FwtOlX+4acpnZytHk='
p162
sg26
I3001
sg27
S'VM6d2PIu2ou8SWTy2JlPRXXGPeIwu4SDPfJCyhmBa3c='
p163
sbsg57
I00
sg58
g2
(g31
g4
Ntp164
Rp165
(dp166
g35
S'10.18.10.12'
p167
sg37
S'10.17.10.12'
p168
sg39
g159
sg41
(lp169
(g2
(g14
g4
Ntp170
Rp171
(dp172
g18
g2
(g14
g4
Ntp173
Rp174
(dp175
g18
g171
sg22
g9
sg24
S'IK+M3s4rzDarf+tlQk0ChQVHD02n3dY5XLtMjy5Xb2w='
p176
sg26
I5003
sg27
S'55S1FErQWqYrHjlo7XyIL1NOnqx6xDk/EwW8JjvGdT8='
p177
sbsg22
V35.230.145.198
p178
sg24
S'4JatR3+zpir1v7vqjjl/0fQhPFCtUIsecpcSKzyOy1g='
p179
sg26
I5001
sg27
S'2xwynlAjEK3/mFxO8pOJjf+S35wq+nM/xe99FkAtey8='
p180
sbg6
tp181
asg44
I5002
sg45
g157
sg57
I00
sg58
g146
sg132
g178
sbsg132
g140
sbtp182
a(g2
(g14
g4
Ntp183
Rp184
(dp185
g18
g2
(g14
g4
Ntp186
Rp187
(dp188
g18
g184
sg22
V35.229.197.99
p189
sg24
S'6N9X+d7E5KgHoJzmhEj8lz9yo1H7G2JE/nlpcrYV+2s='
p190
sg26
I5001
sg27
S'Uuu8LgZFDXBRb2678whR/PQBBc4j7YviadLUSL+27yE='
p191
sbsg22
g71
sg24
S'WPRhvMLbHYSjXWofawzlGY30WgNB2X3A3rCoJVo2C3w='
p192
sg26
I5004
sg27
S'yshhRwSixTWYDPIupUZeygfgkxiOpFi7lIG2LRdxvwQ='
p193
sbg2
(g31
g4
Ntp194
Rp195
(dp196
g35
S'10.8.10.12'
p197
sg37
S'10.7.10.12'
p198
sg39
V10.140.0.6
p199
sg41
(lp200
(g187
g78
tp201
asg44
I5002
sg45
g2
(g14
g4
Ntp202
Rp203
(dp204
g18
g2
(g14
g4
Ntp205
Rp206
(dp207
g18
g203
sg22
V10.154.0.6
p208
sg24
S'YGhXf0Z64hBLQgR/IYUi0AcPzVvcffT2a44Judf3Sks='
p209
sg26
I3001
sg27
S'RnrotDYtjmTPuRF8SVbKeF1/lCZu7c8tzr5C3lFrYUU='
p210
sbsg22
g199
sg24
S'qO85JMG3MLLm2NehTM87MTeLOyFzc7xczhiZjoBxdmI='
p211
sg26
I3001
sg27
S'g5zLixUD9EzxGTzmiVeDa0Bfh2zUqqUYF1J+qI0H+hA='
p212
sbsg57
I00
sg58
g2
(g31
g4
Ntp213
Rp214
(dp215
g35
S'10.20.10.12'
p216
sg37
S'10.19.10.12'
p217
sg39
g208
sg41
(lp218
(g2
(g14
g4
Ntp219
Rp220
(dp221
g18
g2
(g14
g4
Ntp222
Rp223
(dp224
g18
g220
sg22
g9
sg24
S'4M/rJOrIr+tqriTdIyuYBedlKGsASRZt7v+ZQ9y9Vm0='
p225
sg26
I5004
sg27
S'KNyrt+b6anohHptZljf66wXLc2EfXGA+5HshkLmHwEk='
p226
sbsg22
V35.197.194.128
p227
sg24
S'SEJ7dl8mp/dYWLgzLPWCzVlmhV9bYYCGxwISXkDFUWc='
p228
sg26
I5001
sg27
S'uHfQVT17TQR8HrI7riw4Bmceb5S+YdeQH0u1epmLDVg='
p229
sbg6
tp230
asg44
I5002
sg45
g206
sg57
I00
sg58
g195
sg132
g227
sbsg132
g189
sbtp231
a(g2
(g14
g4
Ntp232
Rp233
(dp234
g18
g2
(g14
g4
Ntp235
Rp236
(dp237
g18
g233
sg22
V35.194.190.54
p238
sg24
S'sAZ7cmPLRfNFMRVgsnBEHK824J3s2J1LkMiQCDmyDmo='
p239
sg26
I5001
sg27
S'WQ2mOkDeLg+kyZHMiQaOz1o7Tlulaltqp3a8m13Vwmk='
p240
sbsg22
g71
sg24
S'kIH6C0C5LojO4TvrHcK+4KJ5Ua2WFb8qzA2kDVsnW04='
p241
sg26
I5005
sg27
S'zthuULQHDCYBtuX6IbECHsguD2zoR1WV3ehQZSl57gQ='
p242
sbg2
(g31
g4
Ntp243
Rp244
(dp245
g35
S'10.10.10.12'
p246
sg37
S'10.9.10.12'
p247
sg39
V10.140.0.7
p248
sg41
(lp249
(g236
g78
tp250
asg44
I5002
sg45
g2
(g14
g4
Ntp251
Rp252
(dp253
g18
g2
(g14
g4
Ntp254
Rp255
(dp256
g18
g252
sg22
V10.154.0.7
p257
sg24
S'2Nmtv+iDCSip9zwaCupa1iG/ba7yiaKA8gjudfaKJ04='
p258
sg26
I3001
sg27
S'zgGHb0bzSuOLZoZY+XHliZfwCOA2P9vlPD1QiP0NKAM='
p259
sbsg22
g248
sg24
S'IMIfZ1a6G5WNCajGF8DG0G6TbKJEqSboEb0PGt3RGkE='
p260
sg26
I3001
sg27
S'Rgl4jxwqgZwUaOlGAMsBjzmbt02vCUya5PqBamnjHBU='
p261
sbsg57
I00
sg58
g2
(g31
g4
Ntp262
Rp263
(dp264
g35
S'10.22.10.12'
p265
sg37
S'10.21.10.12'
p266
sg39
g257
sg41
(lp267
(g2
(g14
g4
Ntp268
Rp269
(dp270
g18
g2
(g14
g4
Ntp271
Rp272
(dp273
g18
g269
sg22
g9
sg24
S'yPnxftNjxOAcNx8O1p/CYRqXNiUkmY1/3jE/5XKTTlo='
p274
sg26
I5005
sg27
S'dzhtsutQ55V4Ou5ujEZopJ+1RFuV4YKyfzby2u+n/B0='
p275
sbsg22
V35.189.92.121
p276
sg24
S'yNBnp9gEQPRs3HO7WuOzF/yLSPY9pqmNIdHU7FYnJHg='
p277
sg26
I5001
sg27
S'thCg6ACCBXIA9K/xG/K6O2bRYv2sq/IpZBnuGIGeYAQ='
p278
sbg6
tp279
asg44
I5002
sg45
g255
sg57
I00
sg58
g244
sg132
g276
sbsg132
g238
sbtp280
a(g2
(g14
g4
Ntp281
Rp282
(dp283
g18
g2
(g14
g4
Ntp284
Rp285
(dp286
g18
g282
sg22
V35.229.139.244
p287
sg24
S'GOmfx0n92Z8hCxbqtbrMwh8cmRVFEN1iCZ4kmYcpoHA='
p288
sg26
I5001
sg27
S'gHE4+fKxrhSWUssi8kmdRXo+lVqKGMXlkLDPZDWjS2w='
p289
sbsg22
g71
sg24
S'kOw0LaoyNjP7LPfOyjUvKlQ/20V77XztOju3Bq6fYkg='
p290
sg26
I5006
sg27
S'RwE/T4/U6CHVVIkXTPYFeKB1ozvKROEN5QRmMyzKuDA='
p291
sbg2
(g31
g4
Ntp292
Rp293
(dp294
g35
S'10.12.10.12'
p295
sg37
S'10.11.10.12'
p296
sg39
V10.140.0.8
p297
sg41
(lp298
(g285
g78
tp299
asg44
I5002
sg45
g2
(g14
g4
Ntp300
Rp301
(dp302
g18
g2
(g14
g4
Ntp303
Rp304
(dp305
g18
g301
sg22
V10.154.0.8
p306
sg24
S'EBDJsgWHO8cIPUYCjyWFKRpAo0EplzRpcONF3or0LGU='
p307
sg26
I3001
sg27
S'cKPgrPMp8QMWDRwXK7mqZGoG8FW00LgBl/Vb8tS7UBA='
p308
sbsg22
g297
sg24
S'CO864l9xXxybir+fHtzSm2bA38GAGI8zR6wF6BRzR0I='
p309
sg26
I3001
sg27
S'6e7JWgG4ez17+Kh6iza+8UAayR7QwEsrmiV6sigieEc='
p310
sbsg57
I00
sg58
g2
(g31
g4
Ntp311
Rp312
(dp313
g35
S'10.24.10.12'
p314
sg37
S'10.23.10.12'
p315
sg39
g306
sg41
(lp316
(g2
(g14
g4
Ntp317
Rp318
(dp319
g18
g2
(g14
g4
Ntp320
Rp321
(dp322
g18
g318
sg22
g9
sg24
S'AHZXMvc3Ddo959x4b+nVNwSSeOkPl+S82wpUaQY4KFs='
p323
sg26
I5006
sg27
S'HjFoyiL3pifWq4/aBW5SVudgXH4TjcX58EUIXjt9KDk='
p324
sbsg22
V35.234.128.53
p325
sg24
S'SNkdN80xiE5XfRvTAmTFmVqNhZAXUzt0TwUNEZSBy1A='
p326
sg26
I5001
sg27
S'skP4SfMCNo1q8iNITq2wqNF8LEnz/RBAxU5HcHA/5wk='
p327
sbg6
tp328
asg44
I5002
sg45
g304
sg57
I00
sg58
g293
sg132
g325
sbsg132
g287
sbtp329
assS'private_ip'
p330
V192.168.1.37
p331
sg44
I5007
sbtp332
asg44
I5002
sg45
g50
sg57
I00
sg58
g33
sg132
g74
sbsg132
g23
sbtp333
a(g124
g115
tp334
a(g174
g165
tp335
a(g223
g214
tp336
a(g272
g263
tp337
a(g321
g312
tp338
assg330
V192.168.2.42
p339
sg44
I5007
sbsS'nodes'
p340
(lp341
g2
(clink
Node
p342
g4
Ntp343
Rp344
(dp345
S'region'
p346
Vasia-east1
p347
sS'clients'
p348
(lp349
g78
asg10
(lp350
g60
ag96
ag146
ag195
ag244
ag293
asS'name'
p351
g12
sS'zone'
p352
Vasia-east1-b
p353
sbag2
(g342
g4
Ntp354
Rp355
(dp356
g346
Veurope-west2
p357
sg348
(lp358
g6
asg10
(lp359
g33
ag115
ag165
ag214
ag263
ag312
asg351
g81
sg352
Veurope-west2-b
p360
sbas.