(dp0
S'me'
p1
ccopy_reg
_reconstructor
p2
(clink
Client
p3
c__builtin__
object
p4
Ntp5
Rp6
(dp7
S'public_ip'
p8
V10.142.0.3
p9
sS'transits'
p10
(dp11
Veast
p12
(lp13
(g2
(clink
Endpoint
p14
g4
Ntp15
Rp16
(dp17
S'partner'
p18
g2
(g14
g4
Ntp19
Rp20
(dp21
g18
g16
sS'ip'
p22
V35.224.121.56
p23
sS'private_key'
p24
S'2AAr6lPL1vZEq+E4Zw8shLRST7KHdJOjF6/RBj+Tt34='
p25
sS'port'
p26
I5001
sS'public_key'
p27
S'/1kJQmlJLXCvyyYq3/8ucSyBJronpZ5Qs8E8LuyFIAw='
p28
sbsg22
g9
sg24
S'UNtLMuh3xJb0mekbjjtNsBuAgDNUWZ+A/lVqU3R31k4='
p29
sg26
I5001
sg27
S'4SF1Cp04buYbKZF6qXSXOtmsLgInxzspL/F8el/BtGc='
p30
sbg2
(clink
Transit
p31
g4
Ntp32
Rp33
(dp34
S'private_ip_b'
p35
S'10.2.10.12'
p36
sS'private_ip_a'
p37
S'10.1.10.12'
p38
sS'vpc_ip'
p39
V10.128.0.2
p40
sS'client_facing_endpoints'
p41
(lp42
(g20
g6
tp43
asS'free_port'
p44
I5002
sS'transit_facing_endpoint'
p45
g2
(g14
g4
Ntp46
Rp47
(dp48
g18
g2
(g14
g4
Ntp49
Rp50
(dp51
g18
g47
sg22
V10.154.0.3
p52
sg24
S'wDU90ulG5iy3oGc/tCVq6SF8SgA/ZuXmtFS+PJk8vEc='
p53
sg26
I3001
sg27
S'dQ0RDuatm1mUuKcsaOBouAGViK7rEARo1qlIbJMpdh8='
p54
sbsg22
g40
sg24
S'GGCIJzcSjF1wjbWOWTr8CQNjybnSWaxb8ISbwPnutFE='
p55
sg26
I3001
sg27
S'Ig/joLNLZhKLx1N5pTY2ZT/XSwvk3r7NIzXoP27b5Qo='
p56
sbsS'internal_tunnel'
p57
I00
sS'pair'
p58
g2
(g31
g4
Ntp59
Rp60
(dp61
g35
S'10.10.10.12'
p62
sg37
S'10.9.10.12'
p63
sg39
g52
sg41
(lp64
(g2
(g14
g4
Ntp65
Rp66
(dp67
g18
g2
(g14
g4
Ntp68
Rp69
(dp70
g18
g66
sg22
V10.154.0.2
p71
sg24
S'0GLHeCpaBkqMJcEpi7rSsXnC5NuUPaHV3MIzHdSHP3k='
p72
sg26
I5001
sg27
S'9YTQuyyBs+UTmJnlqPmcSL93Q6bmEYWhli26Gw3JKQU='
p73
sbsg22
V35.189.92.121
p74
sg24
S'wA1OBmrC9+muUK3/GGMI8UF1EKiQLGUwG4T1rEzNxE0='
p75
sg26
I5001
sg27
S'CqAglxXbisr/FYYGqYX1Ht9MHE30hsg6/Yt09ekWhGQ='
p76
sbg2
(g3
g4
Ntp77
Rp78
(dp79
g8
g71
sg10
(dp80
Vcentral
p81
(lp82
(g69
g60
tp83
a(g2
(g14
g4
Ntp84
Rp85
(dp86
g18
g2
(g14
g4
Ntp87
Rp88
(dp89
g18
g85
sg22
V35.234.159.139
p90
sg24
S'KFKjRD9e04SbN70X5nYFc/YVifG68Lt2nMW2lFTGCEI='
p91
sg26
I5001
sg27
S'X1XLZIMGnA4KBiouS3xtf1UIMQ/00cA+Kfvjg2+8NxQ='
p92
sbsg22
g71
sg24
S'SOEk1e/0gNhsOoM1/zI3iKzzW0NyCpWI9CuHInaT20Q='
p93
sg26
I5002
sg27
S'J+bSlxZjqEL3wK6OmLyqX18/Y8G6OhBEQnG+1sy3wBk='
p94
sbg2
(g31
g4
Ntp95
Rp96
(dp97
g35
S'10.12.10.12'
p98
sg37
S'10.11.10.12'
p99
sg39
V10.154.0.4
p100
sg41
(lp101
(g88
g78
tp102
asg44
I5002
sg45
g2
(g14
g4
Ntp103
Rp104
(dp105
g18
g2
(g14
g4
Ntp106
Rp107
(dp108
g18
g104
sg22
V10.128.0.3
p109
sg24
S'6BmZcDIh2k2YJgD328xLlUt1JbQ7T1co9U7RViOJA30='
p110
sg26
I3001
sg27
S'HgVoKbKp2tIewULKBuS131WpXOwTjjJFTJxksqY1Izg='
p111
sbsg22
g100
sg24
S'uOkQSfaCzxXdC9Q9uzvGhnZA4ZaO4wU5GrpFajgI+GA='
p112
sg26
I3001
sg27
S'DLa5bZCxMlGcCwcSsg304FBED48lcBPy5OhGPQGvO1A='
p113
sbsg57
I00
sg58
g2
(g31
g4
Ntp114
Rp115
(dp116
g35
S'10.4.10.12'
p117
sg37
S'10.3.10.12'
p118
sg39
g109
sg41
(lp119
(g2
(g14
g4
Ntp120
Rp121
(dp122
g18
g2
(g14
g4
Ntp123
Rp124
(dp125
g18
g121
sg22
g9
sg24
S'+FrPE8oWm4X+Bgbi1Q1lEge7oTmlbrCxglQYDkdPjkA='
p126
sg26
I5002
sg27
S'7MWU06sxGGrDXiZN1rUha25Iyq97V6NChr/jkItDAVI='
p127
sbsg22
V104.154.234.110
p128
sg24
S'KKPmNrRD/Muud+S2Oq87za2hgEkojL49Kr/WQ666sVM='
p129
sg26
I5001
sg27
S'U/QEAYLMBm2gBPW2VGaaWV46Aqz/+UXl05FHlXlbI2o='
p130
sbg6
tp131
asg44
I5002
sg45
g107
sg57
I00
sg58
g96
sS'client_facing_ip'
p132
g128
sbsg132
g90
sbtp133
a(g2
(g14
g4
Ntp134
Rp135
(dp136
g18
g2
(g14
g4
Ntp137
Rp138
(dp139
g18
g135
sg22
V35.197.193.75
p140
sg24
S'AIoyN6x42wKM+J0y3C+Xxydd96OQ/CA/bisCNNT2i3Q='
p141
sg26
I5001
sg27
S'X2eUSwhQwje+rvJ+M5aUOUkLfsIdrBMFRPUyzapI8jU='
p142
sbsg22
g71
sg24
S'+Pu2DPtb9lT0ko5/dReVRvv/qjwsxiqWhpjskaScKm0='
p143
sg26
I5003
sg27
S'lZYHi6efIXXJSSE4EObVgLQwH7CiQ4ZFaKgpqCIkqDo='
p144
sbg2
(g31
g4
Ntp145
Rp146
(dp147
g35
S'10.14.10.12'
p148
sg37
S'10.13.10.12'
p149
sg39
V10.154.0.5
p150
sg41
(lp151
(g138
g78
tp152
asg44
I5002
sg45
g2
(g14
g4
Ntp153
Rp154
(dp155
g18
g2
(g14
g4
Ntp156
Rp157
(dp158
g18
g154
sg22
V10.128.0.4
p159
sg24
S'CGoxOTZpGEMuHucAnecjAMLQ5XAFIMEyzc+1AeNP400='
p160
sg26
I3001
sg27
S'jAwKulyEU95ByjITZ0EJeMEB31OZzu28f4Bpf+GOl1c='
p161
sbsg22
g150
sg24
S'8MURArNY0IfhVhnRIlhx0xiw4l+jp5aFC8wnQg/fqVs='
p162
sg26
I3001
sg27
S'aST852Gx7zJJQ9rFrsn6Nc0RBqsYN+evN36akcOkrCo='
p163
sbsg57
I00
sg58
g2
(g31
g4
Ntp164
Rp165
(dp166
g35
S'10.6.10.12'
p167
sg37
S'10.5.10.12'
p168
sg39
g159
sg41
(lp169
(g2
(g14
g4
Ntp170
Rp171
(dp172
g18
g2
(g14
g4
Ntp173
Rp174
(dp175
g18
g171
sg22
g9
sg24
S'+JGfofLfOm5eS/j+lt6H5l3l1jtg3QBGZjqhiDV1t38='
p176
sg26
I5003
sg27
S'G++9WG1T+tHabJLqT6APSPenE+NBt6E6Ssu7xDrsMRY='
p177
sbsg22
V35.188.154.240
p178
sg24
S'2Jg5DdZQjoe5fvtkvnfr0E0F54dSTfx6Q73mTK25DGM='
p179
sg26
I5001
sg27
S'OFKy+x7pO4VpZdcfmxT37tgL/GM0gg57rda30TDIuiQ='
p180
sbg6
tp181
asg44
I5002
sg45
g157
sg57
I00
sg58
g146
sg132
g178
sbsg132
g140
sbtp182
a(g2
(g14
g4
Ntp183
Rp184
(dp185
g18
g2
(g14
g4
Ntp186
Rp187
(dp188
g18
g184
sg22
V35.234.128.53
p189
sg24
S'YNlV3JxA8c2AdpwKH1A9lqVh9UT4ltIGV16Kcd0Qr28='
p190
sg26
I5001
sg27
S'XA2VklvLqPC7nLa1uQimluANQhDgvOYoPNQPupSHhzo='
p191
sbsg22
g71
sg24
S'aOqKZpRTcvp4cxhfmFdwDua4ial2rRHca8kVD7PYRVg='
p192
sg26
I5004
sg27
S'VkYiy6dzuIH3u2JSM7OQpv80eao3BIzXUocCvh2kfEI='
p193
sbg2
(g31
g4
Ntp194
Rp195
(dp196
g35
S'10.16.10.12'
p197
sg37
S'10.15.10.12'
p198
sg39
V10.154.0.6
p199
sg41
(lp200
(g187
g78
tp201
asg44
I5002
sg45
g2
(g14
g4
Ntp202
Rp203
(dp204
g18
g2
(g14
g4
Ntp205
Rp206
(dp207
g18
g203
sg22
V10.128.0.5
p208
sg24
S'OBc2hg1jccZajccTjzEX1dygPHk/tbtxY05/djolFHE='
p209
sg26
I3001
sg27
S'bOWN3M19+5w1+AuUlilYRRDzA0/XHOFHAXTH4xjwvBs='
p210
sbsg22
g199
sg24
S'gLL2WvrHlRS+JFl7XHfQMlt+wBW2stZZ3RSxbK4CgUQ='
p211
sg26
I3001
sg27
S'ScrA2bYVaYqVoyo4s+EmB5p2VGQKfLnDZZB2R5aFUUw='
p212
sbsg57
I00
sg58
g2
(g31
g4
Ntp213
Rp214
(dp215
g35
S'10.8.10.12'
p216
sg37
S'10.7.10.12'
p217
sg39
g208
sg41
(lp218
(g2
(g14
g4
Ntp219
Rp220
(dp221
g18
g2
(g14
g4
Ntp222
Rp223
(dp224
g18
g220
sg22
g9
sg24
S'iHc4FeHIQEgW/S2IXTlujEltNPKTOcYRrAJsUJsaw2M='
p225
sg26
I5004
sg27
S'u3BZ1XnHKqFxWk6esx34DKePWma8j6bn6oAUkF7fBxw='
p226
sbsg22
V35.225.217.247
p227
sg24
S'UF1OkCqCz6V4canrg7l2XHvKxdedhmDxPsOQ8RgVClk='
p228
sg26
I5001
sg27
S'Idc9RQ0SGKglNRKrrYGMCxRH2l9b/pBy2c4ssKz7oDg='
p229
sbg6
tp230
asg44
I5002
sg45
g206
sg57
I00
sg58
g195
sg132
g227
sbsg132
g189
sbtp231
assS'private_ip'
p232
V192.168.2.42
p233
sg44
I5005
sbtp234
asg44
I5002
sg45
g50
sg57
I00
sg58
g33
sg132
g74
sbsg132
g23
sbtp235
a(g124
g115
tp236
a(g174
g165
tp237
a(g223
g214
tp238
assg232
V192.168.1.37
p239
sg44
I5005
sbsS'nodes'
p240
(lp241
g2
(clink
Node
p242
g4
Ntp243
Rp244
(dp245
S'region'
p246
Vus-central1
p247
sS'clients'
p248
(lp249
g6
asg10
(lp250
g33
ag115
ag165
ag214
asS'name'
p251
g81
sS'zone'
p252
Vus-central1-b
p253
sbag2
(g242
g4
Ntp254
Rp255
(dp256
g246
Veurope-west2
p257
sg248
(lp258
g78
asg10
(lp259
g60
ag96
ag146
ag195
asg251
g12
sg252
Veurope-west2-b
p260
sbas.