(dp0
S'me'
p1
ccopy_reg
_reconstructor
p2
(clink
Client
p3
c__builtin__
object
p4
Ntp5
Rp6
(dp7
S'public_ip'
p8
V10.142.0.3
p9
sS'transits'
p10
(dp11
Veast
p12
(lp13
(g2
(clink
Endpoint
p14
g4
Ntp15
Rp16
(dp17
S'partner'
p18
g2
(g14
g4
Ntp19
Rp20
(dp21
g18
g16
sS'ip'
p22
V35.224.121.56
p23
sS'private_key'
p24
S'6BiNmDeI3QAE+Sqvy3oNsoJAY/eOHU6nKP6744kt1G8='
p25
sS'port'
p26
I5001
sS'public_key'
p27
S'XhW+tDc8KXyhRO26EmW821hx8vyV3KOF/QmtmgmaiB0='
p28
sbsg22
g9
sg24
S'ADZxT+2w8/vbrMhz5gZJ+ZL4TKU9SSREBX+Vo+HTVFE='
p29
sg26
I5001
sg27
S'w8CVD91zYQxoo720jL2iy3+l1uH3ek0Tt/dEphQ2Kl4='
p30
sbg2
(clink
Transit
p31
g4
Ntp32
Rp33
(dp34
S'private_ip_b'
p35
S'10.2.10.12'
p36
sS'private_ip_a'
p37
S'10.1.10.12'
p38
sS'vpc_ip'
p39
V10.128.0.2
p40
sS'client_facing_endpoints'
p41
(lp42
(g20
g6
tp43
asS'free_port'
p44
I5002
sS'transit_facing_endpoint'
p45
g2
(g14
g4
Ntp46
Rp47
(dp48
g18
g2
(g14
g4
Ntp49
Rp50
(dp51
g18
g47
sg22
V10.154.0.3
p52
sg24
S'sA+5urSDCt94w9PGLb1lGCn4/r9Rr/i0yk5ZDs2TmV4='
p53
sg26
I3001
sg27
S'nP1KYwnSklfRZuayMui1NyfNs+jSlCLvTcAAV+P8zE8='
p54
sbsg22
g40
sg24
S'QGJy2efDo/C2VumqlQAvpWLaOAkKYgFB6wksA0PhwGg='
p55
sg26
I3001
sg27
S'f32/XsDJE1C9RoDcxM9ahDv/Cx9m4MF8Yh+cTBB6rC0='
p56
sbsS'internal_tunnel'
p57
I00
sS'pair'
p58
g2
(g31
g4
Ntp59
Rp60
(dp61
g35
S'10.12.10.12'
p62
sg37
S'10.11.10.12'
p63
sg39
g52
sg41
(lp64
(g2
(g14
g4
Ntp65
Rp66
(dp67
g18
g2
(g14
g4
Ntp68
Rp69
(dp70
g18
g66
sg22
V10.154.0.2
p71
sg24
S'UB7fv7UnYw56PGAZ9czjhxQtGf6eL2y0OoHDxEOeU0I='
p72
sg26
I5001
sg27
S'E/s8Oz0Qafqx6bsZ/SsouyEnKiAQPKqHOgoBVXJ29GM='
p73
sbsg22
V35.234.159.139
p74
sg24
S'aCEwliQ+0/SaCvWctC9/XyBY1ROrzpTd1+E8Y10y1Wg='
p75
sg26
I5001
sg27
S'v/rhbl9khknS6N4gC/fsHQxbgGaV624jpT/unYnQp3w='
p76
sbg2
(g3
g4
Ntp77
Rp78
(dp79
g8
g71
sg10
(dp80
Vcentral
p81
(lp82
(g69
g60
tp83
a(g2
(g14
g4
Ntp84
Rp85
(dp86
g18
g2
(g14
g4
Ntp87
Rp88
(dp89
g18
g85
sg22
V35.197.193.75
p90
sg24
S'EPbGTDA1D0cdErcJlhj3z3EoX9LpcBZZ8mRtS9Oon0Y='
p91
sg26
I5001
sg27
S'pXfuAJewHgsSh7pdSvhni5c0vOZzZ7Mp/ah5jkVgRy4='
p92
sbsg22
g71
sg24
S'eHxi3yRBUtJtJ9kftgkwun03trcx/uayCFByhzkCqVQ='
p93
sg26
I5002
sg27
S'U8Fg2XkBZ+5JkteBlVpJmjm+Kvk6oMCEqGnlS/JG+Ak='
p94
sbg2
(g31
g4
Ntp95
Rp96
(dp97
g35
S'10.14.10.12'
p98
sg37
S'10.13.10.12'
p99
sg39
V10.154.0.4
p100
sg41
(lp101
(g88
g78
tp102
asg44
I5002
sg45
g2
(g14
g4
Ntp103
Rp104
(dp105
g18
g2
(g14
g4
Ntp106
Rp107
(dp108
g18
g104
sg22
V10.128.0.3
p109
sg24
S'sJUwXXYPb9/GhzXQipJoj72tNeOhgsfNVbaaSE02mEE='
p110
sg26
I3001
sg27
S'QHHLCCcBxvnDhFObFPPf2LU+Nq8zFHalmV51AGf4Nn4='
p111
sbsg22
g100
sg24
S'YISp26jhzGs/qBxW5Ye/5xIogAcjxPoPxCvYZAYD+W8='
p112
sg26
I3001
sg27
S'mtazervBi2LLf1qk6ARbutYGVBfAu5TQjSC55V/gjU0='
p113
sbsg57
I00
sg58
g2
(g31
g4
Ntp114
Rp115
(dp116
g35
S'10.4.10.12'
p117
sg37
S'10.3.10.12'
p118
sg39
g109
sg41
(lp119
(g2
(g14
g4
Ntp120
Rp121
(dp122
g18
g2
(g14
g4
Ntp123
Rp124
(dp125
g18
g121
sg22
g9
sg24
S'2DeWiCTMPsWGyOBY0rFNdFsJe2vMj55x5VyML6PEq2A='
p126
sg26
I5002
sg27
S'D+1m/n6gvZX7VC8Vytjs29lH3EnBsxfZdARW3ZOjYi8='
p127
sbsg22
V35.225.217.247
p128
sg24
S'iJImstcayBSCpt+FSyjqXaPo7YvnyszggSuwLEZj+0Y='
p129
sg26
I5001
sg27
S'Ah4nxB3avOnHUYnWwZg+zI0HGxT9aOI87EKH9iV6/kE='
p130
sbg6
tp131
asg44
I5002
sg45
g107
sg57
I00
sg58
g96
sS'client_facing_ip'
p132
g128
sbsg132
g90
sbtp133
a(g2
(g14
g4
Ntp134
Rp135
(dp136
g18
g2
(g14
g4
Ntp137
Rp138
(dp139
g18
g135
sg22
V35.234.128.53
p140
sg24
S'SPWftfpdRjv2jg/8xHK/kcWEQXRy5FrtTHDEJHn/Xko='
p141
sg26
I5001
sg27
S'IIYjeqFt8+5KQt2GSAorfbqSPL50ZDpwQ6N43MKQlwU='
p142
sbsg22
g71
sg24
S'OKfJ8cHEiy+G6g6MSQNN3bc+o1osRXxODe0aRWehm0A='
p143
sg26
I5003
sg27
S'Q+qln+8c0uF+VTO9QbN5IhyHFBQE1dw+5Yc2tpKlYkY='
p144
sbg2
(g31
g4
Ntp145
Rp146
(dp147
g35
S'10.16.10.12'
p148
sg37
S'10.15.10.12'
p149
sg39
V10.154.0.5
p150
sg41
(lp151
(g138
g78
tp152
asg44
I5002
sg45
g2
(g14
g4
Ntp153
Rp154
(dp155
g18
g2
(g14
g4
Ntp156
Rp157
(dp158
g18
g154
sg22
V10.128.0.4
p159
sg24
S'SIiQqdgKl+11aYaCKi0p95ob0b2eWaFgxVypwXVFH2g='
p160
sg26
I3001
sg27
S'nAyDDRXdeipcpa68qJgRoFapnaF18ecMcw0BXC7cB0E='
p161
sbsg22
g150
sg24
S'+LnIJDKkbvs8DrwkUzzytJPeWxNj6njg7c+1mGbHaHg='
p162
sg26
I3001
sg27
S'FiOsSCYD+WlKjtPMJJQ93bvDYTTftg7q6bDLifhjuCI='
p163
sbsg57
I00
sg58
g2
(g31
g4
Ntp164
Rp165
(dp166
g35
S'10.6.10.12'
p167
sg37
S'10.5.10.12'
p168
sg39
g159
sg41
(lp169
(g2
(g14
g4
Ntp170
Rp171
(dp172
g18
g2
(g14
g4
Ntp173
Rp174
(dp175
g18
g171
sg22
g9
sg24
S'sME6YMWi1YfwraiORM8gKU2bHNLrLy5Ch9EyB9Azrkk='
p176
sg26
I5003
sg27
S'j2fbgi5Sga+7uH85+8wJEflynsVb6j5Cs37LZslQ6Dc='
p177
sbsg22
V104.154.234.110
p178
sg24
S'SLhvFuev7dXXmRocoylXFuNiZ5hgSDfoObXw3qY6+nU='
p179
sg26
I5001
sg27
S'kTq6e160zzqxmpNBzXskJegbJV6MoZu/8v1/LsLzciE='
p180
sbg6
tp181
asg44
I5002
sg45
g157
sg57
I00
sg58
g146
sg132
g178
sbsg132
g140
sbtp182
a(g2
(g14
g4
Ntp183
Rp184
(dp185
g18
g2
(g14
g4
Ntp186
Rp187
(dp188
g18
g184
sg22
V35.230.135.62
p189
sg24
S'wFponLY4oOY5wKjbzJUjy4Z+N7Q57rjEp/9Fche4InY='
p190
sg26
I5001
sg27
S'pmGuSLZ3nbWhW5QWeG1V9Re92k0zC3Ef7xLijeZ5ylU='
p191
sbsg22
g71
sg24
S'2CPi1ZGvItj1+Il/Q79G7nMUJ1rZ/0MFn5bd9ninTXo='
p192
sg26
I5004
sg27
S'Obs1pWrS465DMXBU325D8obFKUb/GHKbTGx2eN9hJzs='
p193
sbg2
(g31
g4
Ntp194
Rp195
(dp196
g35
S'10.18.10.12'
p197
sg37
S'10.17.10.12'
p198
sg39
V10.154.0.6
p199
sg41
(lp200
(g187
g78
tp201
asg44
I5002
sg45
g2
(g14
g4
Ntp202
Rp203
(dp204
g18
g2
(g14
g4
Ntp205
Rp206
(dp207
g18
g203
sg22
V10.128.0.5
p208
sg24
S'oHWtTr4kWxGgnDlKwiL5D+dlfciYDBL/v+4nbpVE42A='
p209
sg26
I3001
sg27
S'P3coob+zMCTk9uGuowyFZd/ABOWN4yMuCbEr1rzPgSw='
p210
sbsg22
g199
sg24
S'uAYsWW+1Sa+v98cP2t4C4B4v44SxbF+lSB4gKPDmqG8='
p211
sg26
I3001
sg27
S'D4+KOz0RKFifbTryPWfRl096YhgcIdYpRmfq/d5fcD8='
p212
sbsg57
I00
sg58
g2
(g31
g4
Ntp213
Rp214
(dp215
g35
S'10.8.10.12'
p216
sg37
S'10.7.10.12'
p217
sg39
g208
sg41
(lp218
(g2
(g14
g4
Ntp219
Rp220
(dp221
g18
g2
(g14
g4
Ntp222
Rp223
(dp224
g18
g220
sg22
g9
sg24
S'eIVjjww49sJdtsaycPCfgnM/uvvg1Zby5z/YprZLNlI='
p225
sg26
I5004
sg27
S'y0AAYpy60kwW95k40jM79oOwtwu45176t70yXPqBRgE='
p226
sbsg22
V35.225.133.195
p227
sg24
S'2IXqC+a+lYe7qNen8So4AuIc19gs0s82GHmMDX7DNFc='
p228
sg26
I5001
sg27
S'LCa86tW7R28J1jl9498ihgSYKGEJ095+yuDnSIPWaxQ='
p229
sbg6
tp230
asg44
I5002
sg45
g206
sg57
I00
sg58
g195
sg132
g227
sbsg132
g189
sbtp231
a(g2
(g14
g4
Ntp232
Rp233
(dp234
g18
g2
(g14
g4
Ntp235
Rp236
(dp237
g18
g233
sg22
V35.189.92.121
p238
sg24
S'mKQ88qqRe35NepJ6ZWuNvmkUc0d7btUvkd/HgIs2W2k='
p239
sg26
I5001
sg27
S'VYmlVxJUZiR/0nvU5yDC/sxiQMH7wRgqnOAusUV2IBk='
p240
sbsg22
g71
sg24
S'UBoNVe8N4rwiZAnVDwqQK1fX72w04a/XR84oQgKRcUo='
p241
sg26
I5005
sg27
S'bwskY4vRBTHEWb0dEFU4aYJU9M/X9YVa77NllSgvm0U='
p242
sbg2
(g31
g4
Ntp243
Rp244
(dp245
g35
S'10.20.10.12'
p246
sg37
S'10.19.10.12'
p247
sg39
V10.154.0.7
p248
sg41
(lp249
(g236
g78
tp250
asg44
I5002
sg45
g2
(g14
g4
Ntp251
Rp252
(dp253
g18
g2
(g14
g4
Ntp254
Rp255
(dp256
g18
g252
sg22
V10.128.0.6
p257
sg24
S'MHdcK6og4owhQptIb5CDxMy39OkcsKXt3XvS9X8M0UM='
p258
sg26
I3001
sg27
S'NumtddUkOD6a7p9+DBY1oyMmgY3Ahe0lnQiJxcNLdVU='
p259
sbsg22
g248
sg24
S'+MAV6919vqJyv4W/j10kGE+s3cTM9jbHCfJVtGmD1Wc='
p260
sg26
I3001
sg27
S'HLn9tBdgM9of1RJdlgxbBYwYJRmsSUMI5DMo1SV6FS8='
p261
sbsg57
I00
sg58
g2
(g31
g4
Ntp262
Rp263
(dp264
g35
S'10.10.10.12'
p265
sg37
S'10.9.10.12'
p266
sg39
g257
sg41
(lp267
(g2
(g14
g4
Ntp268
Rp269
(dp270
g18
g2
(g14
g4
Ntp271
Rp272
(dp273
g18
g269
sg22
g9
sg24
S'4Krtqhid32iCVTpB1gh8eFa+WfYyPG0WkQm2QvuBAWs='
p274
sg26
I5005
sg27
S'bundBLp/LL0Ihczg+wYPy0rD2IAcqeWmcTc0hk7oAB8='
p275
sbsg22
V35.192.227.146
p276
sg24
S'cJjxs2uUTT5Eu+Y4HlDOM0SGNSbv2d6yqynnDMVKkn0='
p277
sg26
I5001
sg27
S'wmQ10VpAKy7wOaOonimHpDhvhsJUofLcQXmBcVAtSnc='
p278
sbg6
tp279
asg44
I5002
sg45
g255
sg57
I00
sg58
g244
sg132
g276
sbsg132
g238
sbtp280
assS'private_ip'
p281
V192.168.2.42
p282
sg44
I5006
sbtp283
asg44
I5002
sg45
g50
sg57
I00
sg58
g33
sg132
g74
sbsg132
g23
sbtp284
a(g124
g115
tp285
a(g174
g165
tp286
a(g223
g214
tp287
a(g272
g263
tp288
assg281
V192.168.1.37
p289
sg44
I5006
sbsS'nodes'
p290
(lp291
g2
(clink
Node
p292
g4
Ntp293
Rp294
(dp295
S'region'
p296
Vus-central1
p297
sS'clients'
p298
(lp299
g6
asg10
(lp300
g33
ag115
ag165
ag214
ag263
asS'name'
p301
g81
sS'zone'
p302
Vus-central1-b
p303
sbag2
(g292
g4
Ntp304
Rp305
(dp306
g296
Veurope-west2
p307
sg298
(lp308
g78
asg10
(lp309
g60
ag96
ag146
ag195
ag244
asg301
g12
sg302
Veurope-west2-b
p310
sbas.