(dp0
S'me'
p1
ccopy_reg
_reconstructor
p2
(clink
Client
p3
c__builtin__
object
p4
Ntp5
Rp6
(dp7
S'public_ip'
p8
V10.128.0.2
p9
sS'transits'
p10
(dp11
Veurope
p12
(lp13
(g2
(clink
Endpoint
p14
g4
Ntp15
Rp16
(dp17
S'partner'
p18
g2
(g14
g4
Ntp19
Rp20
(dp21
g18
g16
sS'ip'
p22
V35.225.88.5
p23
sS'private_key'
p24
S'4NyPZdD1HVpPLpwUoThh0bygBA0jPEDhdA3LFGUp0ks='
p25
sS'port'
p26
I5001
sS'public_key'
p27
S'S6+rIEEjGkJOV8OEhxCzaGSw8agyt2jiajBLhsZCDmw='
p28
sbsg22
g9
sg24
S'uLeeCHGGNd02E4rnjfklCTFj2UyrKbLGixbH4QYiwGQ='
p29
sg26
I5001
sg27
S'hfLLyW6tCVyoyZtkUb5zbD5hFTPM3KUC+xipDU+wzjE='
p30
sbg2
(clink
Transit
p31
g4
Ntp32
Rp33
(dp34
S'private_ip_b'
p35
S'10.2.10.12'
p36
sS'private_ip_a'
p37
S'10.1.10.12'
p38
sS'vpc_ip'
p39
V10.128.0.3
p40
sS'client_facing_endpoints'
p41
(lp42
(g20
g6
tp43
asS'free_port'
p44
I5002
sS'transit_facing_endpoint'
p45
g2
(g14
g4
Ntp46
Rp47
(dp48
g18
g2
(g14
g4
Ntp49
Rp50
(dp51
g18
g47
sg22
V10.154.0.3
p52
sg24
S'uLm+/T83JceRGQWLxZGmG6/TKwKiiEPMMY3/IPiggks='
p53
sg26
I3001
sg27
S'WSDu1IZSmgl9SEXzM6xMDAzDCfxTO5L8lODtiGSXhkw='
p54
sbsg22
g40
sg24
S'kGDqDaGaEi2ialpBJeW4AHz6pJcw12waFOldiHONhUc='
p55
sg26
I3001
sg27
S'I58n5T79aASYAbsJE7LLUboUYQ55qNpY0HMequ1ThzE='
p56
sbsS'internal_tunnel'
p57
I00
sS'pair'
p58
g2
(g31
g4
Ntp59
Rp60
(dp61
g35
S'10.26.10.12'
p62
sg37
S'10.25.10.12'
p63
sg39
g52
sg41
(lp64
(g2
(g14
g4
Ntp65
Rp66
(dp67
g18
g2
(g14
g4
Ntp68
Rp69
(dp70
g18
g66
sg22
V10.154.0.2
p71
sg24
S'mLwvJEczQ/O//tP6MF7tDU/qshTnhRLNlQMtBUZ2PnI='
p72
sg26
I5001
sg27
S'unQ4Mo2wUC+99pNmt8tVX8+vLeB9unXGpYH3imFoXHg='
p73
sbsg22
V35.189.92.121
p74
sg24
S'WJ9wvzu9K0yS2SV1afaCgYzSOpJHOkBJCHC/NWnDZ2E='
p75
sg26
I5001
sg27
S'1wCu0nSbnQaqw1+5J5CSGpmObBz2zCmflwIBSlxlvBI='
p76
sbg2
(g3
g4
Ntp77
Rp78
(dp79
g8
g71
sg10
(dp80
Vuscentral
p81
(lp82
(g69
g60
tp83
a(g2
(g14
g4
Ntp84
Rp85
(dp86
g18
g2
(g14
g4
Ntp87
Rp88
(dp89
g18
g85
sg22
V35.234.155.217
p90
sg24
S'GHuVjefWhn1mk3Wh9jQcncJKGB5CP4qu1wKnDpglM0A='
p91
sg26
I5001
sg27
S'Mpo/ZdqJdNbtKUPO6XYhEztsCT7tkCZ4kRJMeWC4rRk='
p92
sbsg22
g71
sg24
S'UKmZtVlso0TDyE61BzM7TGtBTsxRoF2iKkA8rAhV50M='
p93
sg26
I5002
sg27
S'lWXonCWzKm1GAHXiYyswlkZoRRNcS34RtEXzVX7oAk0='
p94
sbg2
(g31
g4
Ntp95
Rp96
(dp97
g35
S'10.28.10.12'
p98
sg37
S'10.27.10.12'
p99
sg39
V10.154.0.4
p100
sg41
(lp101
(g88
g78
tp102
asg44
I5002
sg45
g2
(g14
g4
Ntp103
Rp104
(dp105
g18
g2
(g14
g4
Ntp106
Rp107
(dp108
g18
g104
sg22
V10.128.0.4
p109
sg24
S'+CIGV782Bdlak+5DY+a8IyHPVKBww3sQIlBeb6njOGs='
p110
sg26
I3001
sg27
S'jZZadsA2jMxMFq+9v0gFO2itc13oZeVqOghMDa8dOUY='
p111
sbsg22
g100
sg24
S'QI5g19QuNMJ2kd85U0Eo92hx+nN3EiBZSjnbW2QzAmM='
p112
sg26
I3001
sg27
S'xDA1X8RTZCBSO/x6Il9NxgnTnOqRnd8tWfbn2d3QvRI='
p113
sbsg57
I00
sg58
g2
(g31
g4
Ntp114
Rp115
(dp116
g35
S'10.4.10.12'
p117
sg37
S'10.3.10.12'
p118
sg39
g109
sg41
(lp119
(g2
(g14
g4
Ntp120
Rp121
(dp122
g18
g2
(g14
g4
Ntp123
Rp124
(dp125
g18
g121
sg22
g9
sg24
S'cFcjvZMiZqhQi2zlaj0vtV3xT4TWc8fjztBC3Llt93g='
p126
sg26
I5002
sg27
S'BE8CKy5j5zAlVABOOk+tQyqVwPdY7LyHPuG0zpCCESM='
p127
sbsg22
V146.148.109.123
p128
sg24
S'wAGFmMcAoouRhkvcjsNH383LwJTWGUGuuFcz6qBPAls='
p129
sg26
I5001
sg27
S'tLQqvhghe7vYy0gjLfHZtp23bSHUW9jF4uJ9Kab+5wE='
p130
sbg6
tp131
asg44
I5002
sg45
g107
sg57
I00
sg58
g96
sS'client_facing_ip'
p132
g128
sbsg132
g90
sbtp133
a(g2
(g14
g4
Ntp134
Rp135
(dp136
g18
g2
(g14
g4
Ntp137
Rp138
(dp139
g18
g135
sg22
V35.197.205.165
p140
sg24
S'uMNPULz+S7PXn6/yCMPv6XgMgrCi572w4ljBgLgUgW8='
p141
sg26
I5001
sg27
S'pF4NJcp8eSZkliJ5X8OifIUWjcfEWniTy+HnAJTfuFo='
p142
sbsg22
g71
sg24
S'GFkxNtwdZuwLYGrGO/D7FjeXEAW7LkW/t19qi+Gp5Wk='
p143
sg26
I5003
sg27
S'GgJwy6DEW/EV4TWEQwVsj07X97Fp3kfvlSqycLFV8lE='
p144
sbg2
(g31
g4
Ntp145
Rp146
(dp147
g35
S'10.30.10.12'
p148
sg37
S'10.29.10.12'
p149
sg39
V10.154.0.5
p150
sg41
(lp151
(g138
g78
tp152
asg44
I5002
sg45
g2
(g14
g4
Ntp153
Rp154
(dp155
g18
g2
(g14
g4
Ntp156
Rp157
(dp158
g18
g154
sg22
V10.128.0.5
p159
sg24
S'MLdkaVod93FIVfP1uVcOjvqAPzCfLvLX6/ZDBJl8G2c='
p160
sg26
I3001
sg27
S'7UxU+N4ke4lrxBkYvCK/YnuDl6OCvO0qdrXI+wMWx3U='
p161
sbsg22
g150
sg24
S'eE3izT/yElJ/HwaKcfu86GX1YKhiGgscB32P+5T29Fg='
p162
sg26
I3001
sg27
S'CKSyoK2oQ+2nPT1Sv4rO33a+pMCuRoDpmLovYrAF/x0='
p163
sbsg57
I00
sg58
g2
(g31
g4
Ntp164
Rp165
(dp166
g35
S'10.6.10.12'
p167
sg37
S'10.5.10.12'
p168
sg39
g159
sg41
(lp169
(g2
(g14
g4
Ntp170
Rp171
(dp172
g18
g2
(g14
g4
Ntp173
Rp174
(dp175
g18
g171
sg22
g9
sg24
S'2GjRKqoh5Jm3mXQ+8r0Exlp47b5WVRcODqmvyFdNxGw='
p176
sg26
I5003
sg27
S'5jaIzAT5mhuUAQ1VUNMqfe6uAaDkW3imuotcFX5Y2Ho='
p177
sbsg22
V35.192.139.80
p178
sg24
S'4JXk8BBMWfifr4ei62MuBpyP1pXKUyE1hwPkGuishH4='
p179
sg26
I5001
sg27
S'VNfFVcjGHqUHzJU5cmGkabdQvahuJvlgeTo4pg91wnA='
p180
sbg6
tp181
asg44
I5002
sg45
g157
sg57
I00
sg58
g146
sg132
g178
sbsg132
g140
sbtp182
a(g2
(g14
g4
Ntp183
Rp184
(dp185
g18
g2
(g14
g4
Ntp186
Rp187
(dp188
g18
g184
sg22
V35.234.128.53
p189
sg24
S'cBwxSAJTtVUczwrKdfyaSXCmX6zSYMHzH2myyDKCGUg='
p190
sg26
I5001
sg27
S'WCcEiv2MDzS1GB5Ooman5VeJ7CHHmOraP9kTtDifLmc='
p191
sbsg22
g71
sg24
S'QG5KuQVof2jqaxxHi3N9I/pbtPnUBHOELFQlwhqky0I='
p192
sg26
I5004
sg27
S'1t1g5OaXBNPHbBsWCq9fKIwgD5KZs6HcHw2TImCp0GQ='
p193
sbg2
(g31
g4
Ntp194
Rp195
(dp196
g35
S'10.32.10.12'
p197
sg37
S'10.31.10.12'
p198
sg39
V10.154.0.6
p199
sg41
(lp200
(g187
g78
tp201
asg44
I5002
sg45
g2
(g14
g4
Ntp202
Rp203
(dp204
g18
g2
(g14
g4
Ntp205
Rp206
(dp207
g18
g203
sg22
V10.128.0.6
p208
sg24
S'CKOb0WqIvaCpyfPGBkmHVl4CniB5KooAt0ZTYJB/YV8='
p209
sg26
I3001
sg27
S'FheYpgxKQxtW9cYh7dIQPDDpI0XEk7wdgB8gLlE5zDY='
p210
sbsg22
g199
sg24
S'4KwrLucql1ewXyqtRZdXSFP9ev+i0P9uy7nZyPX730A='
p211
sg26
I3001
sg27
S'k3phomAUrBFEAnnPSPjUZuHsrkUSvUsbk/plIYjYiiw='
p212
sbsg57
I00
sg58
g2
(g31
g4
Ntp213
Rp214
(dp215
g35
S'10.8.10.12'
p216
sg37
S'10.7.10.12'
p217
sg39
g208
sg41
(lp218
(g2
(g14
g4
Ntp219
Rp220
(dp221
g18
g2
(g14
g4
Ntp222
Rp223
(dp224
g18
g220
sg22
g9
sg24
S'eDADUatZtuBKFT85XRiQXcO5lTXF3kOLHom/FcYyEGw='
p225
sg26
I5004
sg27
S'Bp7osl9xs6eiLeCQMaLiGP543fQV6sWXbQY+LubQCRk='
p226
sbsg22
V104.154.33.250
p227
sg24
S'yIiE8eMyquZUp7cLGSOnJ6V/rqt4lXuFPPqDp2JV824='
p228
sg26
I5001
sg27
S'Z0k5O2CGFk4Fh9Vl5HS3p+2nk8WaYzajabFk1S8Ppjo='
p229
sbg6
tp230
asg44
I5002
sg45
g206
sg57
I00
sg58
g195
sg132
g227
sbsg132
g189
sbtp231
a(g2
(g14
g4
Ntp232
Rp233
(dp234
g18
g2
(g14
g4
Ntp235
Rp236
(dp237
g18
g233
sg22
V35.197.193.75
p238
sg24
S'MBRvgvgh8pq6p32YtU1OJXDYvx4D2G5h5uurp6h96lc='
p239
sg26
I5001
sg27
S'HsXzqvDAGBMBI8p59BEcG+F1ViJqn6tSJWKLsG+3t0Y='
p240
sbsg22
g71
sg24
S'WNlMrlM5Tnc8rX+LlXmfZ9XmoSEX0ajI2gOCMjhE0WE='
p241
sg26
I5005
sg27
S'OpyDGhK+h51q/oaJk216tPbSi0UyieGXNJriRMmJBBU='
p242
sbg2
(g31
g4
Ntp243
Rp244
(dp245
g35
S'10.34.10.12'
p246
sg37
S'10.33.10.12'
p247
sg39
V10.154.0.7
p248
sg41
(lp249
(g236
g78
tp250
asg44
I5002
sg45
g2
(g14
g4
Ntp251
Rp252
(dp253
g18
g2
(g14
g4
Ntp254
Rp255
(dp256
g18
g252
sg22
V10.128.0.7
p257
sg24
S'4BTvD1rvz5YNv+Jx1GJhqFPi71sCO394HBhdzaFuk3w='
p258
sg26
I3001
sg27
S'+l4XOVnhlnmpM4zh92RhFvc3D+JnrQqI69VoW0pjHWw='
p259
sbsg22
g248
sg24
S'mKZuvrfC+qH9IEd4fx7SzlPRt52RZLq3pIghyj16430='
p260
sg26
I3001
sg27
S'1mrdgOv3it2eAj3modQ2MSSevTPuS3YWQkK3qd2N6nU='
p261
sbsg57
I00
sg58
g2
(g31
g4
Ntp262
Rp263
(dp264
g35
S'10.10.10.12'
p265
sg37
S'10.9.10.12'
p266
sg39
g257
sg41
(lp267
(g2
(g14
g4
Ntp268
Rp269
(dp270
g18
g2
(g14
g4
Ntp271
Rp272
(dp273
g18
g269
sg22
g9
sg24
S'OOOuw7rMFciYs2vmhxMIyuqiixcCj1JNdEz9Q2qN6Gg='
p274
sg26
I5005
sg27
S'AWK2zQuYkpZxIQ82N7R0lxQ3HCWsP5SyRwpi+nEHhh0='
p275
sbsg22
V35.225.134.47
p276
sg24
S'YIZdWf3sFbSzeZQO8kjuYYZUu7gb+Ep7uQTI3VjH8mQ='
p277
sg26
I5001
sg27
S'uPOF63Hzp+HswFaUpYiTBJl2sY4l+Ap138YQ8bqLVUU='
p278
sbg6
tp279
asg44
I5002
sg45
g255
sg57
I00
sg58
g244
sg132
g276
sbsg132
g238
sbtp280
a(g2
(g14
g4
Ntp281
Rp282
(dp283
g18
g2
(g14
g4
Ntp284
Rp285
(dp286
g18
g282
sg22
V35.234.145.214
p287
sg24
S'sP9lE0Hf5KGCLz+QqsHio2Xgh4njj1ntzmVpifYqRlE='
p288
sg26
I5001
sg27
S'PARBLPQrOGoz372ZXNo7BV4lLvH7McEUOHzKVYAF5h8='
p289
sbsg22
g71
sg24
S'aBDE3YTJi5q5WjuFTQsHp9WZYDyj4mAZz7wll45jsHk='
p290
sg26
I5006
sg27
S'VI7jdQpV1hVrDOVFg18C0F+gGtAsjaZ4O4rufKzzj28='
p291
sbg2
(g31
g4
Ntp292
Rp293
(dp294
g35
S'10.36.10.12'
p295
sg37
S'10.35.10.12'
p296
sg39
V10.154.0.8
p297
sg41
(lp298
(g285
g78
tp299
asg44
I5002
sg45
g2
(g14
g4
Ntp300
Rp301
(dp302
g18
g2
(g14
g4
Ntp303
Rp304
(dp305
g18
g301
sg22
V10.128.0.8
p306
sg24
S'8GGgmPz/ZrkJ+bm5Nf2F3REN2JMyh7+EhcT4/+UiOVw='
p307
sg26
I3001
sg27
S'dRZ7z7T1BHhrAXje5GkG5pg/SuyDvbyq07iuH8ceWAg='
p308
sbsg22
g297
sg24
S'qL10cLQ14dC0wBpWbIJsW1B6iIutKD3Jj/hSpL5PNG0='
p309
sg26
I3001
sg27
S'rmo+A3ZltS5tQbuTCqVcVyvsdLqCyAxX8g+18IrVhx0='
p310
sbsg57
I00
sg58
g2
(g31
g4
Ntp311
Rp312
(dp313
g35
S'10.12.10.12'
p314
sg37
S'10.11.10.12'
p315
sg39
g306
sg41
(lp316
(g2
(g14
g4
Ntp317
Rp318
(dp319
g18
g2
(g14
g4
Ntp320
Rp321
(dp322
g18
g318
sg22
g9
sg24
S'sLn/mFyKxT0WbjVUbgsZxF943KUOy4mqLeSE0IpmDEc='
p323
sg26
I5006
sg27
S'jbkHexs55zDGSI/pb7Igu07eKrUiYZpYYSPa7G5wrHY='
p324
sbsg22
V35.202.239.187
p325
sg24
S'wEBEIV9v3TWw3cVSf7r2D/qtrlsIDSfnuZBCioDKa1E='
p326
sg26
I5001
sg27
S'oMpQIlWzYvkT1EBtethRU/OaE4vGSkqhGyIKIJtRokY='
p327
sbg6
tp328
asg44
I5002
sg45
g304
sg57
I00
sg58
g293
sg132
g325
sbsg132
g287
sbtp329
a(g2
(g14
g4
Ntp330
Rp331
(dp332
g18
g2
(g14
g4
Ntp333
Rp334
(dp335
g18
g331
sg22
V35.197.212.74
p336
sg24
S'aMWvvi5EwzttzfcV2yxztshBkv0vO8wAc9aAQlb4n1g='
p337
sg26
I5001
sg27
S'Y4kZ0YElOUmHRsutuOSmeUN+PwsgIyCtDVmJVjb/FGo='
p338
sbsg22
g71
sg24
S'sJ43CLIdirJW2F83BAU8BjDCpWj4mpDDg2XdA4FE+1g='
p339
sg26
I5007
sg27
S'NjgLtvqu0XbTmbeLLoY3vAy8nvHHGNF0FHf99v7pLTk='
p340
sbg2
(g31
g4
Ntp341
Rp342
(dp343
g35
S'10.38.10.12'
p344
sg37
S'10.37.10.12'
p345
sg39
V10.154.0.9
p346
sg41
(lp347
(g334
g78
tp348
asg44
I5002
sg45
g2
(g14
g4
Ntp349
Rp350
(dp351
g18
g2
(g14
g4
Ntp352
Rp353
(dp354
g18
g350
sg22
V10.128.0.9
p355
sg24
S'CKGyAqnE3tPCOKTfaZJ6C1AA4lZFy1E+caTBfRI2Wnw='
p356
sg26
I3001
sg27
S'3NIvuccQ39IkMwOsPQkPgtq3Blk5mYcgG6wGazyPuF4='
p357
sbsg22
g346
sg24
S'kH+phAs1pKG8yHfcAdkxiyLQfn5xFAvu0RwBFEwQCE8='
p358
sg26
I3001
sg27
S'1qG7ptv/YOSAasKgQx+RtqFsj/NSlmGHwpuSkgrab1I='
p359
sbsg57
I00
sg58
g2
(g31
g4
Ntp360
Rp361
(dp362
g35
S'10.14.10.12'
p363
sg37
S'10.13.10.12'
p364
sg39
g355
sg41
(lp365
(g2
(g14
g4
Ntp366
Rp367
(dp368
g18
g2
(g14
g4
Ntp369
Rp370
(dp371
g18
g367
sg22
g9
sg24
S'6DtKXNl7hwaJMYFvmPvvIuoukXO0Qld0+3g5vDaT320='
p372
sg26
I5007
sg27
S'i7poT+x5iK5+oEoIV9iXS7dIE5Q1enfPkeA9I8qy3UY='
p373
sbsg22
V35.232.58.53
p374
sg24
S'iL20ZfsZ9xQL495Zb5E7IL431mhoc735JosaCvWynmk='
p375
sg26
I5001
sg27
S'1om7lJjviSF9JqUuYSsNZj/KX9Vc2LieB54I9D4Brzk='
p376
sbg6
tp377
asg44
I5002
sg45
g353
sg57
I00
sg58
g342
sg132
g374
sbsg132
g336
sbtp378
a(g2
(g14
g4
Ntp379
Rp380
(dp381
g18
g2
(g14
g4
Ntp382
Rp383
(dp384
g18
g380
sg22
V35.230.145.198
p385
sg24
S'oCY8GM3voMc/wfShPiXeUka2K9YwnePdi+Bsm2U0J3c='
p386
sg26
I5001
sg27
S'NpPB/oBEB9mX+1BS1QEschUJrA+8XKwv6LP2/h+dTmI='
p387
sbsg22
g71
sg24
S'iOfZqUBtP/HlDDvWa5ZA7J3X/Fj/fCzr5flSUaORxmg='
p388
sg26
I5008
sg27
S'+sLXlnaeo6DNYyi9dX7iDzW06TZ1QpKRhs7SzRFHsBs='
p389
sbg2
(g31
g4
Ntp390
Rp391
(dp392
g35
S'10.40.10.12'
p393
sg37
S'10.39.10.12'
p394
sg39
V10.154.0.10
p395
sg41
(lp396
(g383
g78
tp397
asg44
I5002
sg45
g2
(g14
g4
Ntp398
Rp399
(dp400
g18
g2
(g14
g4
Ntp401
Rp402
(dp403
g18
g399
sg22
V10.128.0.10
p404
sg24
S'wI7uK2TLEBDHbGTvMCX3RRZHwrxpv1IwncXbR45Oa3k='
p405
sg26
I3001
sg27
S'7nAqBgkuGyAfPk3n9rA3En0X0t/VxT7SavCUzYQPuHk='
p406
sbsg22
g395
sg24
S'OGiO6jS5Ikob2LfRFqFgrr4+F+z+Pr11jOzHSu6CHG0='
p407
sg26
I3001
sg27
S'y5cim1AtU47/Vn1ffgH0z+diWQXyGFD6M34IYNI0X0Y='
p408
sbsg57
I00
sg58
g2
(g31
g4
Ntp409
Rp410
(dp411
g35
S'10.16.10.12'
p412
sg37
S'10.15.10.12'
p413
sg39
g404
sg41
(lp414
(g2
(g14
g4
Ntp415
Rp416
(dp417
g18
g2
(g14
g4
Ntp418
Rp419
(dp420
g18
g416
sg22
g9
sg24
S'MADJSLWEB1mcv+QtqenS5+5GAJe+pQKuGD7rmRKGYV8='
p421
sg26
I5008
sg27
S'zdj7tCyQR3HgfKwbhpKriR+iiAa/IrSL/sc3emZI4hk='
p422
sbsg22
V35.232.232.96
p423
sg24
S'wKH+nri89v+Cs/Xlot3y0bmQg7bU8IdEySETVMjBemE='
p424
sg26
I5001
sg27
S'VZOfiJmsp3KxQcPd3TF+qFGsDU6rNtgkj3Q+BUg6WSs='
p425
sbg6
tp426
asg44
I5002
sg45
g402
sg57
I00
sg58
g391
sg132
g423
sbsg132
g385
sbtp427
a(g2
(g14
g4
Ntp428
Rp429
(dp430
g18
g2
(g14
g4
Ntp431
Rp432
(dp433
g18
g429
sg22
V35.189.93.248
p434
sg24
S'SAp3xKf8otRuBSTIlyzcpoj1NUFweBwszIWHeAj9DmA='
p435
sg26
I5001
sg27
S'eAw6P69ggsZtoyiMBrOfRHMRtZn/YjbsgRjQvhIXLUE='
p436
sbsg22
g71
sg24
S'QECqFSiePCBfXQhdC3ANCnNTvn3XLW0mBA6SukdcCHg='
p437
sg26
I5009
sg27
S'w8MLJL3fayNwaTj0yprbLYjhBrTaPmpG9PFxle8vn1w='
p438
sbg2
(g31
g4
Ntp439
Rp440
(dp441
g35
S'10.42.10.12'
p442
sg37
S'10.41.10.12'
p443
sg39
V10.154.0.11
p444
sg41
(lp445
(g432
g78
tp446
asg44
I5002
sg45
g2
(g14
g4
Ntp447
Rp448
(dp449
g18
g2
(g14
g4
Ntp450
Rp451
(dp452
g18
g448
sg22
V10.128.0.11
p453
sg24
S'SLvvvUkDdZ4u++RuHc2whY/L1I82Q8LDH0clttnOGXo='
p454
sg26
I3001
sg27
S'j8oIQqeyEJvbbl7wliLGHXPFGXqNT5mMob+0Q30x+EE='
p455
sbsg22
g444
sg24
S'KL2468RkyhGFa9/Tp273teZbFyHmAsTHKYGQU+9UU0Y='
p456
sg26
I3001
sg27
S'yxz84aldAUg8GQMZVKEuuIOSbvKzIjSe2p0+q7qHiE4='
p457
sbsg57
I00
sg58
g2
(g31
g4
Ntp458
Rp459
(dp460
g35
S'10.18.10.12'
p461
sg37
S'10.17.10.12'
p462
sg39
g453
sg41
(lp463
(g2
(g14
g4
Ntp464
Rp465
(dp466
g18
g2
(g14
g4
Ntp467
Rp468
(dp469
g18
g465
sg22
g9
sg24
S'oEhxiuckWM6LaBavalTbnKOnYyxCTPaY10qspuwXK0A='
p470
sg26
I5009
sg27
S'7CryVHzNHr6oaBi7p1sQHJu+MeKUkDfs9psnDRbBgw4='
p471
sbsg22
V35.193.183.221
p472
sg24
S'MO0hT1DjJRVKKAccMyphqiyeB0xraeU9/LGC3I/Bdn0='
p473
sg26
I5001
sg27
S'LSvCuc8JZNh3H/5no8yFTEFhr442CQdZRaMmuSZ0UEc='
p474
sbg6
tp475
asg44
I5002
sg45
g451
sg57
I00
sg58
g440
sg132
g472
sbsg132
g434
sbtp476
a(g2
(g14
g4
Ntp477
Rp478
(dp479
g18
g2
(g14
g4
Ntp480
Rp481
(dp482
g18
g478
sg22
V35.230.129.56
p483
sg24
S'cGZY/eF+MQAN3GGohTmShmMiCg9M8SwekdMNzMUuKGc='
p484
sg26
I5001
sg27
S'Zx8vqzEGaUo2mPoN14TFNWSzsVASWTrv8hQVl545bxI='
p485
sbsg22
g71
sg24
S'OBLk1r3B0tflafWZSt1DHze+qPBck/m0Wom57KGq8m4='
p486
sg26
I5010
sg27
S'Cyt/MIrrp6VZ4wDwysUpDgotu5DY3jAvi8hljcJ+RHs='
p487
sbg2
(g31
g4
Ntp488
Rp489
(dp490
g35
S'10.44.10.12'
p491
sg37
S'10.43.10.12'
p492
sg39
V10.154.0.12
p493
sg41
(lp494
(g481
g78
tp495
asg44
I5002
sg45
g2
(g14
g4
Ntp496
Rp497
(dp498
g18
g2
(g14
g4
Ntp499
Rp500
(dp501
g18
g497
sg22
V10.128.0.12
p502
sg24
S'aE6BRQX32NCDS5T++vozwNWALZc2bLnu4D4pkInKFmI='
p503
sg26
I3001
sg27
S'GP96q2YAFOQpIGoo0V6c0V+6fWgFAY/PCuXu77e4+Fc='
p504
sbsg22
g493
sg24
S'YGkSPrrggQnpn36A4sCfL09Ceux93I/99sSbX8/Hi1Y='
p505
sg26
I3001
sg27
S'gmXH5aKHL/ooEh+0UcMSZx5eX+BxS0S0Jl5kB+KFWys='
p506
sbsg57
I00
sg58
g2
(g31
g4
Ntp507
Rp508
(dp509
g35
S'10.20.10.12'
p510
sg37
S'10.19.10.12'
p511
sg39
g502
sg41
(lp512
(g2
(g14
g4
Ntp513
Rp514
(dp515
g18
g2
(g14
g4
Ntp516
Rp517
(dp518
g18
g514
sg22
g9
sg24
S'YE9EEw0CkBxVBMvpZqY+H1RVsAbVX5LWyHmUBUwlN1M='
p519
sg26
I5010
sg27
S'k4t5S9ZiR6ur+r0XskOjBsfKvycvbUPSqySKAMkKxRk='
p520
sbsg22
V35.188.115.254
p521
sg24
S'8By6021eCNjjMkpl6SNFkVxDJagjIJfx5mnn9xpGHH4='
p522
sg26
I5001
sg27
S'zV+NVnLOS1VlVqSQ/UbuuNtlzEngpZaOIlea+AtrwH8='
p523
sbg6
tp524
asg44
I5002
sg45
g500
sg57
I00
sg58
g489
sg132
g521
sbsg132
g483
sbtp525
a(g2
(g14
g4
Ntp526
Rp527
(dp528
g18
g2
(g14
g4
Ntp529
Rp530
(dp531
g18
g527
sg22
V35.197.232.245
p532
sg24
S'EIbzD9xVqBN8M7L8C8ebf/qK62dxIL1F7LcSgGhhlUE='
p533
sg26
I5001
sg27
S'aDk0/KNJMTsTC8hWoRRiNAt8Chvmowftzqjn0J9ej2Q='
p534
sbsg22
g71
sg24
S'0KmONlZ9rA40iGhEGm7W6eOwMuXwjZ5XWk4q/DSxxlk='
p535
sg26
I5011
sg27
S'qrnBDXdvqQWAXY4dGvYfrSHDEAPgRK2uYj64lgUYjGI='
p536
sbg2
(g31
g4
Ntp537
Rp538
(dp539
g35
S'10.46.10.12'
p540
sg37
S'10.45.10.12'
p541
sg39
V10.154.0.13
p542
sg41
(lp543
(g530
g78
tp544
asg44
I5002
sg45
g2
(g14
g4
Ntp545
Rp546
(dp547
g18
g2
(g14
g4
Ntp548
Rp549
(dp550
g18
g546
sg22
V10.128.0.13
p551
sg24
S'iOBHHJCmiFGNcyCM26O9QTZD1qlv44IpuTCCQhPsWHI='
p552
sg26
I3001
sg27
S'WINoXO20NEU9a9AXTIoMuAur+HphHe5tfczObog/LVw='
p553
sbsg22
g542
sg24
S'wF3g2iryCPvnQQqpF2L4bCraW2zOEtgsaMNo36b6VX4='
p554
sg26
I3001
sg27
S'zvhCfxQlvN4U3TByXo4q0JkxITfOSnHScu5zqhp34kM='
p555
sbsg57
I00
sg58
g2
(g31
g4
Ntp556
Rp557
(dp558
g35
S'10.22.10.12'
p559
sg37
S'10.21.10.12'
p560
sg39
g551
sg41
(lp561
(g2
(g14
g4
Ntp562
Rp563
(dp564
g18
g2
(g14
g4
Ntp565
Rp566
(dp567
g18
g563
sg22
g9
sg24
S'8JyybqPrfk01F/cRAGT2YFm3jF+AJCFCS73PeJiyjnc='
p568
sg26
I5011
sg27
S'KRosz8lx+Cm0Vo+IFmt8XI7PbAN5LecxbfDlc4f8mk0='
p569
sbsg22
V104.197.126.85
p570
sg24
S'ePSQBZLV0nbAJOdjsGQTUONdn8dUJ1QwsUPQG9T/tXs='
p571
sg26
I5001
sg27
S'T1dbNuXzqth38JupbeBjPO1vld+41tP8LEKLbGxI2wQ='
p572
sbg6
tp573
asg44
I5002
sg45
g549
sg57
I00
sg58
g538
sg132
g570
sbsg132
g532
sbtp574
a(g2
(g14
g4
Ntp575
Rp576
(dp577
g18
g2
(g14
g4
Ntp578
Rp579
(dp580
g18
g576
sg22
V35.230.135.62
p581
sg24
S'2CC1tLQxvrPem+W+fuxVet1KtPvL3+AnYlHNeDR94GI='
p582
sg26
I5001
sg27
S'YtiyPb4YxulvuFmbCC84U49Vme8fFTEEfLkOYWyOB3w='
p583
sbsg22
g71
sg24
S'kAaeyVZseQZIau2zYrz/ZkRUuLbzBOsY0E+Ys1LM1E4='
p584
sg26
I5012
sg27
S'bZfUdHL2thyHfZ1N7NfHK3MsW2U/8c98ZQ1wRqAsUyw='
p585
sbg2
(g31
g4
Ntp586
Rp587
(dp588
g35
S'10.48.10.12'
p589
sg37
S'10.47.10.12'
p590
sg39
V10.154.0.14
p591
sg41
(lp592
(g579
g78
tp593
asg44
I5002
sg45
g2
(g14
g4
Ntp594
Rp595
(dp596
g18
g2
(g14
g4
Ntp597
Rp598
(dp599
g18
g595
sg22
V10.128.0.14
p600
sg24
S'COMDh+xVUV5NfyefgXboonlqdYV1Izn76wkGlWJvjHY='
p601
sg26
I3001
sg27
S'55jtdt4lU5bkQY6SvlF4rYT2GuLIS6IIhMmi89bdSTw='
p602
sbsg22
g591
sg24
S'aLMTeyUy4Si+f9iccyKXTmiDyygwInjRBoBsJzfC/34='
p603
sg26
I3001
sg27
S'k8RJLhNGG3zjUDJEwZLZH9pFECw9jfVOsKK8eLbhbRc='
p604
sbsg57
I00
sg58
g2
(g31
g4
Ntp605
Rp606
(dp607
g35
S'10.24.10.12'
p608
sg37
S'10.23.10.12'
p609
sg39
g600
sg41
(lp610
(g2
(g14
g4
Ntp611
Rp612
(dp613
g18
g2
(g14
g4
Ntp614
Rp615
(dp616
g18
g612
sg22
g9
sg24
S'UNAYW7WVwddk8lstOzuatL+yId5W99TGALLoM1cCWU8='
p617
sg26
I5012
sg27
S'FiawcniHRLoGL8QNixRm6uS1swLT6liL2/DOMHGWggQ='
p618
sbsg22
V35.188.134.114
p619
sg24
S'4K/3lpn24aqGnWBAVTiN2HvKs35UazdjwmGcGC0XGlo='
p620
sg26
I5001
sg27
S'ra0/vlRPtwC6TZygj/rPdQ7wtCfVRhCWHDlXVoexT3Q='
p621
sbg6
tp622
asg44
I5002
sg45
g598
sg57
I00
sg58
g587
sg132
g619
sbsg132
g581
sbtp623
assS'private_ip'
p624
V192.168.2.42
p625
sg44
I5013
sbtp626
asg44
I5002
sg45
g50
sg57
I00
sg58
g33
sg132
g74
sbsg132
g23
sbtp627
a(g124
g115
tp628
a(g174
g165
tp629
a(g223
g214
tp630
a(g272
g263
tp631
a(g321
g312
tp632
a(g370
g361
tp633
a(g419
g410
tp634
a(g468
g459
tp635
a(g517
g508
tp636
a(g566
g557
tp637
a(g615
g606
tp638
assg624
V192.168.1.37
p639
sg44
I5013
sbsS'nodes'
p640
(lp641
g2
(clink
Node
p642
g4
Ntp643
Rp644
(dp645
S'region'
p646
Vus-central1
p647
sS'clients'
p648
(lp649
g6
asg10
(lp650
g33
ag115
ag165
ag214
ag263
ag312
ag361
ag410
ag459
ag508
ag557
ag606
asS'name'
p651
g81
sS'zone'
p652
Vus-central1-b
p653
sbag2
(g642
g4
Ntp654
Rp655
(dp656
g646
Veurope-west2
p657
sg648
(lp658
g78
asg10
(lp659
g60
ag96
ag146
ag195
ag244
ag293
ag342
ag391
ag440
ag489
ag538
ag587
asg651
g12
sg652
Veurope-west2-b
p660
sbas.