(dp0
S'me'
p1
ccopy_reg
_reconstructor
p2
(clink
Client
p3
c__builtin__
object
p4
Ntp5
Rp6
(dp7
S'public_ip'
p8
V10.128.0.2
p9
sS'transits'
p10
(dp11
Veurope
p12
(lp13
(g2
(clink
Endpoint
p14
g4
Ntp15
Rp16
(dp17
S'partner'
p18
g2
(g14
g4
Ntp19
Rp20
(dp21
g18
g16
sS'ip'
p22
V35.192.139.80
p23
sS'private_key'
p24
S'OKiQMj1/k6fnItVsR3lJHjKWQQ7QG6InV1iOlmDjOmo='
p25
sS'port'
p26
I5001
sS'public_key'
p27
S'pAheO78C5InKZKuPmEGO4MwwBEpk2WV7H7SVwtHE9js='
p28
sbsg22
g9
sg24
S'gHJ6SuGVD5OGgRsWHxk2gYUAl/SAJru8tcMqn2Zla0k='
p29
sg26
I5001
sg27
S'Bzs0DlVKa5SqcwsLMLnZ6h2diV10+JkF496lhy1J0Rc='
p30
sbg2
(clink
Transit
p31
g4
Ntp32
Rp33
(dp34
S'private_ip_b'
p35
S'10.2.10.12'
p36
sS'private_ip_a'
p37
S'10.1.10.12'
p38
sS'vpc_ip'
p39
V10.128.0.3
p40
sS'client_facing_endpoints'
p41
(lp42
(g20
g6
tp43
asS'free_port'
p44
I5002
sS'transit_facing_endpoint'
p45
g2
(g14
g4
Ntp46
Rp47
(dp48
g18
g2
(g14
g4
Ntp49
Rp50
(dp51
g18
g47
sg22
V10.154.0.3
p52
sg24
S'SF768NVZ9l1lCdxZJyQBFAZ4ZGBzGgZWHVRdN244i3Y='
p53
sg26
I3001
sg27
S'KS7i6mX5OWZ412y5JYI5RPnoVLnJSM0XondemYSoqX4='
p54
sbsg22
g40
sg24
S'YHTibkT/NY5sYcDzgGSPuzDwxLy+FH3u8ew+eAASkXY='
p55
sg26
I3001
sg27
S'+e9X6y/+5gxV1yDdMjnTewh+QgzQnEVhYekWXoEUhzM='
p56
sbsS'internal_tunnel'
p57
I00
sS'pair'
p58
g2
(g31
g4
Ntp59
Rp60
(dp61
g35
S'10.18.10.12'
p62
sg37
S'10.17.10.12'
p63
sg39
g52
sg41
(lp64
(g2
(g14
g4
Ntp65
Rp66
(dp67
g18
g2
(g14
g4
Ntp68
Rp69
(dp70
g18
g66
sg22
V10.154.0.2
p71
sg24
S'gK4dKwi5mHur/sORrOLqQGE1yeLRB1kD2CjzUs6/ZEE='
p72
sg26
I5001
sg27
S'yiUrxnQ9Sv/PZX1ZbZy0ASQKnqEYL5CbJnYHSN/pQis='
p73
sbsg22
V35.230.145.198
p74
sg24
S'AKvKDLKKv8oQSuld0odcyztPP25+Vv+0B/DUGkYoEn8='
p75
sg26
I5001
sg27
S'0wQydPFFer0wIG5V1RuV9b1j81+CVzjY1Y987zhSykA='
p76
sbg2
(g3
g4
Ntp77
Rp78
(dp79
g8
g71
sg10
(dp80
Vuscentral
p81
(lp82
(g69
g60
tp83
a(g2
(g14
g4
Ntp84
Rp85
(dp86
g18
g2
(g14
g4
Ntp87
Rp88
(dp89
g18
g85
sg22
V35.197.212.74
p90
sg24
S'wLi7N+b6GYkx4Co9FSY0xeYgJodmt+Gk6myPM5HDzGg='
p91
sg26
I5001
sg27
S'8wjG3FHCmS4ssmMZEa0Jr0+ACsZ0CczvXDi+8CM2F0w='
p92
sbsg22
g71
sg24
S'OPHy6/9w3GpjPECqE6VbWzjbhZaf7wtfA00KLuVT/0Y='
p93
sg26
I5002
sg27
S'Rqg9DaU1G24EoLsUlib2YI6kkn8iCqs1Zs6NNXqctg0='
p94
sbg2
(g31
g4
Ntp95
Rp96
(dp97
g35
S'10.20.10.12'
p98
sg37
S'10.19.10.12'
p99
sg39
V10.154.0.4
p100
sg41
(lp101
(g88
g78
tp102
asg44
I5002
sg45
g2
(g14
g4
Ntp103
Rp104
(dp105
g18
g2
(g14
g4
Ntp106
Rp107
(dp108
g18
g104
sg22
V10.128.0.4
p109
sg24
S'YGEDCr1ZY6aZ+Vu2iYk092bOvXXxO6ujD4uACPko5ls='
p110
sg26
I3001
sg27
S'VoziAgEO4nMSKZ2Vd/aunHWZefm62H366hWqe/XDV0E='
p111
sbsg22
g100
sg24
S'eBMjrO4jaGBf3xigrywabxRjalerxJwW6J3zgRf9Ols='
p112
sg26
I3001
sg27
S'srDi5JTIRor03MZr1wPL3KgdRx91gLClfW4E4boz6gk='
p113
sbsg57
I00
sg58
g2
(g31
g4
Ntp114
Rp115
(dp116
g35
S'10.4.10.12'
p117
sg37
S'10.3.10.12'
p118
sg39
g109
sg41
(lp119
(g2
(g14
g4
Ntp120
Rp121
(dp122
g18
g2
(g14
g4
Ntp123
Rp124
(dp125
g18
g121
sg22
g9
sg24
S'GDHhlAFpROKs1de99mjjLfJUrvZAK3BisHa5Go+SM3k='
p126
sg26
I5002
sg27
S'NS9ol0R8U3fkAN3Op26emQG9LJPZcQbEhClL2687n2E='
p127
sbsg22
V104.154.33.250
p128
sg24
S'qGlW+95oso717/oz68GSnu5nx5drVbLL/AwqPrzP8n0='
p129
sg26
I5001
sg27
S'iDERC6fasp84bTOFNTkP8B5Dviy6SvOD6PRISjpEQC0='
p130
sbg6
tp131
asg44
I5002
sg45
g107
sg57
I00
sg58
g96
sS'client_facing_ip'
p132
g128
sbsg132
g90
sbtp133
a(g2
(g14
g4
Ntp134
Rp135
(dp136
g18
g2
(g14
g4
Ntp137
Rp138
(dp139
g18
g135
sg22
V35.197.194.128
p140
sg24
S'KP8n3PV+5a60VlgAur5jSj+/Dd78JX+Y4lhyoNT2uU4='
p141
sg26
I5001
sg27
S'h71u6NmucHiuZvk+NWePZVjQ3redlAtKPOGXAhNB2E4='
p142
sbsg22
g71
sg24
S'wO4cy/H628R2mANxnKSIPnm24eRm/5yCIX1UIYOpbWY='
p143
sg26
I5003
sg27
S'GjY+0YuW15OOuxxGmPU9uRwIvWr+xoSQEOxFOYUoJzQ='
p144
sbg2
(g31
g4
Ntp145
Rp146
(dp147
g35
S'10.22.10.12'
p148
sg37
S'10.21.10.12'
p149
sg39
V10.154.0.5
p150
sg41
(lp151
(g138
g78
tp152
asg44
I5002
sg45
g2
(g14
g4
Ntp153
Rp154
(dp155
g18
g2
(g14
g4
Ntp156
Rp157
(dp158
g18
g154
sg22
V10.128.0.5
p159
sg24
S'aGhggPLmCe/ivSqkbErfkbLIIKClBl2XkI+uv66Zlkg='
p160
sg26
I3001
sg27
S'efeCI473MOh0WWRWTwnWW+/dsAnOugAxxdqGmJYw3TA='
p161
sbsg22
g150
sg24
S'qDVWbbRAdLIxfD2zCeS+SwdfXDs90V8vr0mQSBFfH0A='
p162
sg26
I3001
sg27
S'kT1asxaU3bpdHIjKtSmXeF6CYvdK/RODdKvLu7C6rlQ='
p163
sbsg57
I00
sg58
g2
(g31
g4
Ntp164
Rp165
(dp166
g35
S'10.6.10.12'
p167
sg37
S'10.5.10.12'
p168
sg39
g159
sg41
(lp169
(g2
(g14
g4
Ntp170
Rp171
(dp172
g18
g2
(g14
g4
Ntp173
Rp174
(dp175
g18
g171
sg22
g9
sg24
S'QDKDOq/FLJ7K4aUz5r5lidIU8eWkRwhUlue3Hf6Yt1s='
p176
sg26
I5003
sg27
S'5hzYsE9XCo9/I+06JpEcYuy9IvsstrESrB1IjeqbUxY='
p177
sbsg22
V35.225.88.5
p178
sg24
S'oD5oj8MUGQngRzujlzLDDlG5shtx5uzmqllquMuuAGU='
p179
sg26
I5001
sg27
S'nKkWEhNMd6QYwQri5HPknfpCqXRsZbPFyAHc04pC3DA='
p180
sbg6
tp181
asg44
I5002
sg45
g157
sg57
I00
sg58
g146
sg132
g178
sbsg132
g140
sbtp182
a(g2
(g14
g4
Ntp183
Rp184
(dp185
g18
g2
(g14
g4
Ntp186
Rp187
(dp188
g18
g184
sg22
V35.230.129.56
p189
sg24
S'uOK1CoeHiQe/vQhTMvxIcNa5DZ2LRy1VbZHkjG9GmEU='
p190
sg26
I5001
sg27
S'tYmenkhgDk/Dt/IjfNZSGLKszVfVqT3t+QpcHkeiCVI='
p191
sbsg22
g71
sg24
S'uAkfew1qCieqAhHI58qwjOa43qS1tw/spKZB0O6l1l4='
p192
sg26
I5004
sg27
S'E4ojpL5KSf6BUojU+uCG7JGYlb05gXxhJIKl9IJOUVU='
p193
sbg2
(g31
g4
Ntp194
Rp195
(dp196
g35
S'10.24.10.12'
p197
sg37
S'10.23.10.12'
p198
sg39
V10.154.0.6
p199
sg41
(lp200
(g187
g78
tp201
asg44
I5002
sg45
g2
(g14
g4
Ntp202
Rp203
(dp204
g18
g2
(g14
g4
Ntp205
Rp206
(dp207
g18
g203
sg22
V10.128.0.6
p208
sg24
S'wP2uj8jfWYVEvcUW6Et6eBnRcFgxwnp0t5KXfLVrHUw='
p209
sg26
I3001
sg27
S'9Q/OD1WYj/QelAtvwrg5iPIJsD2qEqzWRDYCz5NZ4Qg='
p210
sbsg22
g199
sg24
S'uB7LEitOKG+x2Y8MaNCUQSCBzlmjYDcglbHQtsWdynA='
p211
sg26
I3001
sg27
S'Rl/reuGvFM5mvEsT/cPJroglL+1OJL1QSsI8MJxsrVc='
p212
sbsg57
I00
sg58
g2
(g31
g4
Ntp213
Rp214
(dp215
g35
S'10.8.10.12'
p216
sg37
S'10.7.10.12'
p217
sg39
g208
sg41
(lp218
(g2
(g14
g4
Ntp219
Rp220
(dp221
g18
g2
(g14
g4
Ntp222
Rp223
(dp224
g18
g220
sg22
g9
sg24
S'qKo492QSPp783c31gAzoiOMBdVDWGFkElpLMr/Z93XI='
p225
sg26
I5004
sg27
S'GAVgSyod6Gkwzj3Y5slNgT0YsSwsH6EuR/Grhxo4tnI='
p226
sbsg22
V35.202.239.187
p227
sg24
S'yJ3aY5BEGUyr999mz2aNWJZCbRSFYnWpbW6nxr+kRVM='
p228
sg26
I5001
sg27
S'VcIW5Li8HBNsnVJnTuEXy/OQjRmEBhS2QgKES/rJkBA='
p229
sbg6
tp230
asg44
I5002
sg45
g206
sg57
I00
sg58
g195
sg132
g227
sbsg132
g189
sbtp231
a(g2
(g14
g4
Ntp232
Rp233
(dp234
g18
g2
(g14
g4
Ntp235
Rp236
(dp237
g18
g233
sg22
V35.234.155.217
p238
sg24
S'qEdRxTSyXVWRuxNs5LAACHA2Xxg7hh/2MsRE8x3dz24='
p239
sg26
I5001
sg27
S'i35DT0j5LwHlu4L1PdoVGKcL7vgaEODdjapFZXNVN1U='
p240
sbsg22
g71
sg24
S'SDtIEtFkY7ovUueLLcHqcWJZCy3zL5ec/pZ/g7oRmFo='
p241
sg26
I5005
sg27
S'aba8IsDGwFWiu1GOSUFZB6+5Vc144mpc8rEzgGlbBEA='
p242
sbg2
(g31
g4
Ntp243
Rp244
(dp245
g35
S'10.26.10.12'
p246
sg37
S'10.25.10.12'
p247
sg39
V10.154.0.7
p248
sg41
(lp249
(g236
g78
tp250
asg44
I5002
sg45
g2
(g14
g4
Ntp251
Rp252
(dp253
g18
g2
(g14
g4
Ntp254
Rp255
(dp256
g18
g252
sg22
V10.128.0.7
p257
sg24
S'kMlZSFgih3D78t+cPflsUInPQQfecMbPbAltUSoWj0E='
p258
sg26
I3001
sg27
S'ZzqXXPGANak+Lgdht4MaqH+083xLdFFJW6wnYSE8rng='
p259
sbsg22
g248
sg24
S'oKZ7n/5dWYBWKTFYIs8wfujD+bk3AqpwTwnteOuwaXw='
p260
sg26
I3001
sg27
S'QwO5HVx2Xa0sTlOjfmn3z0hDUI0RTyIuA2RM8Qx4SlU='
p261
sbsg57
I00
sg58
g2
(g31
g4
Ntp262
Rp263
(dp264
g35
S'10.10.10.12'
p265
sg37
S'10.9.10.12'
p266
sg39
g257
sg41
(lp267
(g2
(g14
g4
Ntp268
Rp269
(dp270
g18
g2
(g14
g4
Ntp271
Rp272
(dp273
g18
g269
sg22
g9
sg24
S'OONvRlzM4V4JfxPrDXu4q/KWyO82PpOZ/jRgsb98pkE='
p274
sg26
I5005
sg27
S'R55TRVCUpf6Vao6gNTnXHAsCDKL0G3RZgg5VjOxqLVk='
p275
sbsg22
V35.225.134.47
p276
sg24
S'2C4VrRC1e+PP+tZhbiCciezY7pqoox0i1B0uOAx8wWM='
p277
sg26
I5001
sg27
S'T1EqyXJgm4ez+IfOuvHt/fUc94qoap2YcbU/EGZpvR0='
p278
sbg6
tp279
asg44
I5002
sg45
g255
sg57
I00
sg58
g244
sg132
g276
sbsg132
g238
sbtp280
a(g2
(g14
g4
Ntp281
Rp282
(dp283
g18
g2
(g14
g4
Ntp284
Rp285
(dp286
g18
g282
sg22
V35.197.205.165
p287
sg24
S'GHXurfxxNs1XVu7EZbz7YOluwiFuzaK8gg3Tt1hEFH0='
p288
sg26
I5001
sg27
S'ynMmbvAup/YPWJjjz6aPvUJEIPNONB8JbDwHexWOkxY='
p289
sbsg22
g71
sg24
S'UFjk4/INTQX63CAKcI40of7Gp/RpAcdQgMsOReSk634='
p290
sg26
I5006
sg27
S'4nXDni29I0+NBWaGvsyd8TvAwVTyMjvx4CI1AcyHJQw='
p291
sbg2
(g31
g4
Ntp292
Rp293
(dp294
g35
S'10.28.10.12'
p295
sg37
S'10.27.10.12'
p296
sg39
V10.154.0.8
p297
sg41
(lp298
(g285
g78
tp299
asg44
I5002
sg45
g2
(g14
g4
Ntp300
Rp301
(dp302
g18
g2
(g14
g4
Ntp303
Rp304
(dp305
g18
g301
sg22
V10.128.0.8
p306
sg24
S'kM8BKLxQ+i1lEzFDgNtpTL+cv5JJKwPAuJpdKrlMB10='
p307
sg26
I3001
sg27
S'gfqkNALRhlUz7zDG+WliVlrU8rP9Jmb6Z4lNrNzh9h4='
p308
sbsg22
g297
sg24
S'iNHQ6Cb9OzL9eaC+CZMgkAhETr0V1v39bf5odsxQe1g='
p309
sg26
I3001
sg27
S'Wy4Kls1G/OlluwDRmup/Uhqg2BptbTMDBXKCEQ9wiWw='
p310
sbsg57
I00
sg58
g2
(g31
g4
Ntp311
Rp312
(dp313
g35
S'10.12.10.12'
p314
sg37
S'10.11.10.12'
p315
sg39
g306
sg41
(lp316
(g2
(g14
g4
Ntp317
Rp318
(dp319
g18
g2
(g14
g4
Ntp320
Rp321
(dp322
g18
g318
sg22
g9
sg24
S'MEJd9OwSKFdL2IJAEve/5SrkRYh+Ug+eQE/4iX7TVFU='
p323
sg26
I5006
sg27
S'oH0T8woDPauIZ6UrhbWVXin3soRSTqrU/POkbiFGGzk='
p324
sbsg22
V35.232.232.96
p325
sg24
S'eFYMNTkzrFERpoLWZJjKAGqhvm2GhaBl85xc7+71LWE='
p326
sg26
I5001
sg27
S'skoBYFbYOLdC+9EqI543RcCFLTYg+uOmSyeZroHG41U='
p327
sbg6
tp328
asg44
I5002
sg45
g304
sg57
I00
sg58
g293
sg132
g325
sbsg132
g287
sbtp329
a(g2
(g14
g4
Ntp330
Rp331
(dp332
g18
g2
(g14
g4
Ntp333
Rp334
(dp335
g18
g331
sg22
V35.189.92.121
p336
sg24
S'SLi7pfzxhR71/8Z9yz1msK/ypgQCbeWgvETwr9sSak8='
p337
sg26
I5001
sg27
S'si/lc5E9W9aNsQdmBax4hmY/ey7naG/srwtc1mqpLRo='
p338
sbsg22
g71
sg24
S'4LWPwvexnQq6L+6dzuRWf7b669dM5/Cvt5EzAE7Gp0Q='
p339
sg26
I5007
sg27
S'jRoxXjRPZFr7dFUQIkSMFEjNENeR22kKXv8wOvWyZHU='
p340
sbg2
(g31
g4
Ntp341
Rp342
(dp343
g35
S'10.30.10.12'
p344
sg37
S'10.29.10.12'
p345
sg39
V10.154.0.9
p346
sg41
(lp347
(g334
g78
tp348
asg44
I5002
sg45
g2
(g14
g4
Ntp349
Rp350
(dp351
g18
g2
(g14
g4
Ntp352
Rp353
(dp354
g18
g350
sg22
V10.128.0.9
p355
sg24
S'QOqXGr+FdWdRpEargCMCqSRdt3ME4k2y5Z0myLyWXWg='
p356
sg26
I3001
sg27
S'w/MzOjaS3lNqdi9b+M9/oPf3fVgfJHkkbM6T3/UsyQk='
p357
sbsg22
g346
sg24
S'CKT7H/ZwnOD0ow3q0OfIZjTGH0Yb0SUZqG43BJWVuFE='
p358
sg26
I3001
sg27
S'I735rDgz0zsuP+yb/HVGZgrOFSydk0wq5UQyRFWevSg='
p359
sbsg57
I00
sg58
g2
(g31
g4
Ntp360
Rp361
(dp362
g35
S'10.14.10.12'
p363
sg37
S'10.13.10.12'
p364
sg39
g355
sg41
(lp365
(g2
(g14
g4
Ntp366
Rp367
(dp368
g18
g2
(g14
g4
Ntp369
Rp370
(dp371
g18
g367
sg22
g9
sg24
S'SK7mOjlPprT17XFxoZpai8e0lYjC75OEvDnLQhTTTmI='
p372
sg26
I5007
sg27
S'CMp7lZTyZ/EWBL/uRdt+1L6Q3zQOdGjqk019AQ0smFY='
p373
sbsg22
V35.232.58.53
p374
sg24
S'qHduuLDOLBV8d9GRQmcVhGc7XuXR4h6UAsDUyb7eM0c='
p375
sg26
I5001
sg27
S'/bVeHaorSZQ2pEfbvzvnA4g58QNiFmc2bG55ZyxkNU4='
p376
sbg6
tp377
asg44
I5002
sg45
g353
sg57
I00
sg58
g342
sg132
g374
sbsg132
g336
sbtp378
a(g2
(g14
g4
Ntp379
Rp380
(dp381
g18
g2
(g14
g4
Ntp382
Rp383
(dp384
g18
g380
sg22
V35.189.116.240
p385
sg24
S'0MlPWpNAmXqzmO0DH3mHodCUvkoFb7NK5HP5n7VPqn0='
p386
sg26
I5001
sg27
S'3hJYD2N2LngHaPbcLzoz8CV2CuuyftUMKZNcD5nqGHI='
p387
sbsg22
g71
sg24
S'CG573tzP0fgmme9PS2c9tpheFI2eeW7XVuDUPzzOcFg='
p388
sg26
I5008
sg27
S'jfzYbVXuIUU0vyxyyWahJ8ufxvdCs8Oumjo2IR7AAn0='
p389
sbg2
(g31
g4
Ntp390
Rp391
(dp392
g35
S'10.32.10.12'
p393
sg37
S'10.31.10.12'
p394
sg39
V10.154.0.10
p395
sg41
(lp396
(g383
g78
tp397
asg44
I5002
sg45
g2
(g14
g4
Ntp398
Rp399
(dp400
g18
g2
(g14
g4
Ntp401
Rp402
(dp403
g18
g399
sg22
V10.128.0.10
p404
sg24
S'UJazqvrwSSNSGPMDMcmkJI6ImSkktEQ1c14hmz8Ncnk='
p405
sg26
I3001
sg27
S'Djs4m0Kah5bpC9TYMtOG/UrrNPg6xDshCRSItmJ/Rh0='
p406
sbsg22
g395
sg24
S'qLdQsFnaBbRCAZrUgGu4QkL6ELNuv1l31H/DEerQ11g='
p407
sg26
I3001
sg27
S'DjkVXG2fV9t6Yz/d0aniG2XeUkHMNkag4LzM68v+sxM='
p408
sbsg57
I00
sg58
g2
(g31
g4
Ntp409
Rp410
(dp411
g35
S'10.16.10.12'
p412
sg37
S'10.15.10.12'
p413
sg39
g404
sg41
(lp414
(g2
(g14
g4
Ntp415
Rp416
(dp417
g18
g2
(g14
g4
Ntp418
Rp419
(dp420
g18
g416
sg22
g9
sg24
S'yEgi5hdDC2RxuQeB3sRRPyo6rTSI0aLl1yaAecTR0n8='
p421
sg26
I5008
sg27
S'62kzHZ7m62XMdLaYMgMHD4Az8oei8j+vu8trdXrLyWs='
p422
sbsg22
V146.148.109.123
p423
sg24
S'6MCiWfO68kcOHop5H4Ze2wzhdMydgSms1CfmHTP6ZUE='
p424
sg26
I5001
sg27
S'f0XYLCAUhd5jEWzELBCL4en0sEyyBR1gaQGenjFGlGc='
p425
sbg6
tp426
asg44
I5002
sg45
g402
sg57
I00
sg58
g391
sg132
g423
sbsg132
g385
sbtp427
assS'private_ip'
p428
V192.168.2.42
p429
sg44
I5009
sbtp430
asg44
I5002
sg45
g50
sg57
I00
sg58
g33
sg132
g74
sbsg132
g23
sbtp431
a(g124
g115
tp432
a(g174
g165
tp433
a(g223
g214
tp434
a(g272
g263
tp435
a(g321
g312
tp436
a(g370
g361
tp437
a(g419
g410
tp438
assg428
V192.168.1.37
p439
sg44
I5009
sbsS'nodes'
p440
(lp441
g2
(clink
Node
p442
g4
Ntp443
Rp444
(dp445
S'region'
p446
Vus-central1
p447
sS'clients'
p448
(lp449
g6
asg10
(lp450
g33
ag115
ag165
ag214
ag263
ag312
ag361
ag410
asS'name'
p451
g81
sS'zone'
p452
Vus-central1-b
p453
sbag2
(g442
g4
Ntp454
Rp455
(dp456
g446
Veurope-west2
p457
sg448
(lp458
g78
asg10
(lp459
g60
ag96
ag146
ag195
ag244
ag293
ag342
ag391
asg451
g12
sg452
Veurope-west2-b
p460
sbas.